Archive member included to satisfy reference by file (symbol)

/opt/Atollic_TrueSTUDIO_for_STM32_x86_64_9.3.0/ARMTools/bin/../lib/gcc/arm-atollic-eabi/6.3.1/../../../../arm-atollic-eabi/lib/armv7e-m/fpu/libc.a(lib_a-errno.o)
                              Core/src/syscalls.o (__errno)
/opt/Atollic_TrueSTUDIO_for_STM32_x86_64_9.3.0/ARMTools/bin/../lib/gcc/arm-atollic-eabi/6.3.1/../../../../arm-atollic-eabi/lib/armv7e-m/fpu/libc.a(lib_a-impure.o)
                              /opt/Atollic_TrueSTUDIO_for_STM32_x86_64_9.3.0/ARMTools/bin/../lib/gcc/arm-atollic-eabi/6.3.1/../../../../arm-atollic-eabi/lib/armv7e-m/fpu/libc.a(lib_a-errno.o) (_impure_ptr)
/opt/Atollic_TrueSTUDIO_for_STM32_x86_64_9.3.0/ARMTools/bin/../lib/gcc/arm-atollic-eabi/6.3.1/../../../../arm-atollic-eabi/lib/armv7e-m/fpu/libc.a(lib_a-init.o)
                              startup/startup_stm32f407xx.o (__libc_init_array)
/opt/Atollic_TrueSTUDIO_for_STM32_x86_64_9.3.0/ARMTools/bin/../lib/gcc/arm-atollic-eabi/6.3.1/../../../../arm-atollic-eabi/lib/armv7e-m/fpu/libc.a(lib_a-malloc.o)
                              Middlewares/ST/STM32_USB_Device_Library/Class/CDC/Src/usbd_cdc.o (malloc)
/opt/Atollic_TrueSTUDIO_for_STM32_x86_64_9.3.0/ARMTools/bin/../lib/gcc/arm-atollic-eabi/6.3.1/../../../../arm-atollic-eabi/lib/armv7e-m/fpu/libc.a(lib_a-mallocr.o)
                              /opt/Atollic_TrueSTUDIO_for_STM32_x86_64_9.3.0/ARMTools/bin/../lib/gcc/arm-atollic-eabi/6.3.1/../../../../arm-atollic-eabi/lib/armv7e-m/fpu/libc.a(lib_a-malloc.o) (_malloc_r)
/opt/Atollic_TrueSTUDIO_for_STM32_x86_64_9.3.0/ARMTools/bin/../lib/gcc/arm-atollic-eabi/6.3.1/../../../../arm-atollic-eabi/lib/armv7e-m/fpu/libc.a(lib_a-memcpy-stub.o)
                              Middlewares/Third_Party/FreeRTOS/Source/CMSIS_RTOS_V2/cmsis_os2.o (memcpy)
/opt/Atollic_TrueSTUDIO_for_STM32_x86_64_9.3.0/ARMTools/bin/../lib/gcc/arm-atollic-eabi/6.3.1/../../../../arm-atollic-eabi/lib/armv7e-m/fpu/libc.a(lib_a-memset.o)
                              Core/src/main.o (memset)
/opt/Atollic_TrueSTUDIO_for_STM32_x86_64_9.3.0/ARMTools/bin/../lib/gcc/arm-atollic-eabi/6.3.1/../../../../arm-atollic-eabi/lib/armv7e-m/fpu/libc.a(lib_a-mlock.o)
                              /opt/Atollic_TrueSTUDIO_for_STM32_x86_64_9.3.0/ARMTools/bin/../lib/gcc/arm-atollic-eabi/6.3.1/../../../../arm-atollic-eabi/lib/armv7e-m/fpu/libc.a(lib_a-mallocr.o) (__malloc_lock)
/opt/Atollic_TrueSTUDIO_for_STM32_x86_64_9.3.0/ARMTools/bin/../lib/gcc/arm-atollic-eabi/6.3.1/../../../../arm-atollic-eabi/lib/armv7e-m/fpu/libc.a(lib_a-sbrkr.o)
                              /opt/Atollic_TrueSTUDIO_for_STM32_x86_64_9.3.0/ARMTools/bin/../lib/gcc/arm-atollic-eabi/6.3.1/../../../../arm-atollic-eabi/lib/armv7e-m/fpu/libc.a(lib_a-mallocr.o) (_sbrk_r)
/opt/Atollic_TrueSTUDIO_for_STM32_x86_64_9.3.0/ARMTools/bin/../lib/gcc/arm-atollic-eabi/6.3.1/../../../../arm-atollic-eabi/lib/armv7e-m/fpu/libc.a(lib_a-sprintf.o)
                              Middlewares/Third_Party/FreeRTOS/Source/tasks.o (sprintf)
/opt/Atollic_TrueSTUDIO_for_STM32_x86_64_9.3.0/ARMTools/bin/../lib/gcc/arm-atollic-eabi/6.3.1/../../../../arm-atollic-eabi/lib/armv7e-m/fpu/libc.a(lib_a-strcpy.o)
                              Middlewares/Third_Party/FreeRTOS/Source/tasks.o (strcpy)
/opt/Atollic_TrueSTUDIO_for_STM32_x86_64_9.3.0/ARMTools/bin/../lib/gcc/arm-atollic-eabi/6.3.1/../../../../arm-atollic-eabi/lib/armv7e-m/fpu/libc.a(lib_a-strlen.o)
                              Middlewares/Third_Party/FreeRTOS/Source/tasks.o (strlen)
/opt/Atollic_TrueSTUDIO_for_STM32_x86_64_9.3.0/ARMTools/bin/../lib/gcc/arm-atollic-eabi/6.3.1/../../../../arm-atollic-eabi/lib/armv7e-m/fpu/libc.a(lib_a-svfprintf.o)
                              /opt/Atollic_TrueSTUDIO_for_STM32_x86_64_9.3.0/ARMTools/bin/../lib/gcc/arm-atollic-eabi/6.3.1/../../../../arm-atollic-eabi/lib/armv7e-m/fpu/libc.a(lib_a-sprintf.o) (_svfprintf_r)
/opt/Atollic_TrueSTUDIO_for_STM32_x86_64_9.3.0/ARMTools/bin/../lib/gcc/arm-atollic-eabi/6.3.1/../../../../arm-atollic-eabi/lib/armv7e-m/fpu/libc.a(lib_a-dtoa.o)
                              /opt/Atollic_TrueSTUDIO_for_STM32_x86_64_9.3.0/ARMTools/bin/../lib/gcc/arm-atollic-eabi/6.3.1/../../../../arm-atollic-eabi/lib/armv7e-m/fpu/libc.a(lib_a-svfprintf.o) (_dtoa_r)
/opt/Atollic_TrueSTUDIO_for_STM32_x86_64_9.3.0/ARMTools/bin/../lib/gcc/arm-atollic-eabi/6.3.1/../../../../arm-atollic-eabi/lib/armv7e-m/fpu/libc.a(lib_a-freer.o)
                              /opt/Atollic_TrueSTUDIO_for_STM32_x86_64_9.3.0/ARMTools/bin/../lib/gcc/arm-atollic-eabi/6.3.1/../../../../arm-atollic-eabi/lib/armv7e-m/fpu/libc.a(lib_a-malloc.o) (_free_r)
/opt/Atollic_TrueSTUDIO_for_STM32_x86_64_9.3.0/ARMTools/bin/../lib/gcc/arm-atollic-eabi/6.3.1/../../../../arm-atollic-eabi/lib/armv7e-m/fpu/libc.a(lib_a-localeconv.o)
                              /opt/Atollic_TrueSTUDIO_for_STM32_x86_64_9.3.0/ARMTools/bin/../lib/gcc/arm-atollic-eabi/6.3.1/../../../../arm-atollic-eabi/lib/armv7e-m/fpu/libc.a(lib_a-svfprintf.o) (_localeconv_r)
/opt/Atollic_TrueSTUDIO_for_STM32_x86_64_9.3.0/ARMTools/bin/../lib/gcc/arm-atollic-eabi/6.3.1/../../../../arm-atollic-eabi/lib/armv7e-m/fpu/libc.a(lib_a-lock.o)
                              /opt/Atollic_TrueSTUDIO_for_STM32_x86_64_9.3.0/ARMTools/bin/../lib/gcc/arm-atollic-eabi/6.3.1/../../../../arm-atollic-eabi/lib/armv7e-m/fpu/libc.a(lib_a-mlock.o) (__retarget_lock_acquire_recursive)
/opt/Atollic_TrueSTUDIO_for_STM32_x86_64_9.3.0/ARMTools/bin/../lib/gcc/arm-atollic-eabi/6.3.1/../../../../arm-atollic-eabi/lib/armv7e-m/fpu/libc.a(lib_a-memchr.o)
                              /opt/Atollic_TrueSTUDIO_for_STM32_x86_64_9.3.0/ARMTools/bin/../lib/gcc/arm-atollic-eabi/6.3.1/../../../../arm-atollic-eabi/lib/armv7e-m/fpu/libc.a(lib_a-svfprintf.o) (memchr)
/opt/Atollic_TrueSTUDIO_for_STM32_x86_64_9.3.0/ARMTools/bin/../lib/gcc/arm-atollic-eabi/6.3.1/../../../../arm-atollic-eabi/lib/armv7e-m/fpu/libc.a(lib_a-mprec.o)
                              /opt/Atollic_TrueSTUDIO_for_STM32_x86_64_9.3.0/ARMTools/bin/../lib/gcc/arm-atollic-eabi/6.3.1/../../../../arm-atollic-eabi/lib/armv7e-m/fpu/libc.a(lib_a-dtoa.o) (_Balloc)
/opt/Atollic_TrueSTUDIO_for_STM32_x86_64_9.3.0/ARMTools/bin/../lib/gcc/arm-atollic-eabi/6.3.1/../../../../arm-atollic-eabi/lib/armv7e-m/fpu/libc.a(lib_a-reent.o)
                              /opt/Atollic_TrueSTUDIO_for_STM32_x86_64_9.3.0/ARMTools/bin/../lib/gcc/arm-atollic-eabi/6.3.1/../../../../arm-atollic-eabi/lib/armv7e-m/fpu/libc.a(lib_a-sbrkr.o) (errno)
/opt/Atollic_TrueSTUDIO_for_STM32_x86_64_9.3.0/ARMTools/bin/../lib/gcc/arm-atollic-eabi/6.3.1/../../../../arm-atollic-eabi/lib/armv7e-m/fpu/libc.a(lib_a-svfiprintf.o)
                              /opt/Atollic_TrueSTUDIO_for_STM32_x86_64_9.3.0/ARMTools/bin/../lib/gcc/arm-atollic-eabi/6.3.1/../../../../arm-atollic-eabi/lib/armv7e-m/fpu/libc.a(lib_a-svfprintf.o) (__ssprint_r)
/opt/Atollic_TrueSTUDIO_for_STM32_x86_64_9.3.0/ARMTools/bin/../lib/gcc/arm-atollic-eabi/6.3.1/../../../../arm-atollic-eabi/lib/armv7e-m/fpu/libc.a(lib_a-callocr.o)
                              /opt/Atollic_TrueSTUDIO_for_STM32_x86_64_9.3.0/ARMTools/bin/../lib/gcc/arm-atollic-eabi/6.3.1/../../../../arm-atollic-eabi/lib/armv7e-m/fpu/libc.a(lib_a-mprec.o) (_calloc_r)
/opt/Atollic_TrueSTUDIO_for_STM32_x86_64_9.3.0/ARMTools/bin/../lib/gcc/arm-atollic-eabi/6.3.1/../../../../arm-atollic-eabi/lib/armv7e-m/fpu/libc.a(lib_a-locale.o)
                              /opt/Atollic_TrueSTUDIO_for_STM32_x86_64_9.3.0/ARMTools/bin/../lib/gcc/arm-atollic-eabi/6.3.1/../../../../arm-atollic-eabi/lib/armv7e-m/fpu/libc.a(lib_a-localeconv.o) (__global_locale)
/opt/Atollic_TrueSTUDIO_for_STM32_x86_64_9.3.0/ARMTools/bin/../lib/gcc/arm-atollic-eabi/6.3.1/../../../../arm-atollic-eabi/lib/armv7e-m/fpu/libc.a(lib_a-mbtowc_r.o)
                              /opt/Atollic_TrueSTUDIO_for_STM32_x86_64_9.3.0/ARMTools/bin/../lib/gcc/arm-atollic-eabi/6.3.1/../../../../arm-atollic-eabi/lib/armv7e-m/fpu/libc.a(lib_a-locale.o) (__ascii_mbtowc)
/opt/Atollic_TrueSTUDIO_for_STM32_x86_64_9.3.0/ARMTools/bin/../lib/gcc/arm-atollic-eabi/6.3.1/../../../../arm-atollic-eabi/lib/armv7e-m/fpu/libc.a(lib_a-memmove.o)
                              /opt/Atollic_TrueSTUDIO_for_STM32_x86_64_9.3.0/ARMTools/bin/../lib/gcc/arm-atollic-eabi/6.3.1/../../../../arm-atollic-eabi/lib/armv7e-m/fpu/libc.a(lib_a-svfiprintf.o) (memmove)
/opt/Atollic_TrueSTUDIO_for_STM32_x86_64_9.3.0/ARMTools/bin/../lib/gcc/arm-atollic-eabi/6.3.1/../../../../arm-atollic-eabi/lib/armv7e-m/fpu/libc.a(lib_a-reallocr.o)
                              /opt/Atollic_TrueSTUDIO_for_STM32_x86_64_9.3.0/ARMTools/bin/../lib/gcc/arm-atollic-eabi/6.3.1/../../../../arm-atollic-eabi/lib/armv7e-m/fpu/libc.a(lib_a-svfiprintf.o) (_realloc_r)
/opt/Atollic_TrueSTUDIO_for_STM32_x86_64_9.3.0/ARMTools/bin/../lib/gcc/arm-atollic-eabi/6.3.1/../../../../arm-atollic-eabi/lib/armv7e-m/fpu/libc.a(lib_a-strcmp.o)
                              /opt/Atollic_TrueSTUDIO_for_STM32_x86_64_9.3.0/ARMTools/bin/../lib/gcc/arm-atollic-eabi/6.3.1/../../../../arm-atollic-eabi/lib/armv7e-m/fpu/libc.a(lib_a-locale.o) (strcmp)
/opt/Atollic_TrueSTUDIO_for_STM32_x86_64_9.3.0/ARMTools/bin/../lib/gcc/arm-atollic-eabi/6.3.1/../../../../arm-atollic-eabi/lib/armv7e-m/fpu/libc.a(lib_a-wctomb_r.o)
                              /opt/Atollic_TrueSTUDIO_for_STM32_x86_64_9.3.0/ARMTools/bin/../lib/gcc/arm-atollic-eabi/6.3.1/../../../../arm-atollic-eabi/lib/armv7e-m/fpu/libc.a(lib_a-locale.o) (__ascii_wctomb)
/opt/Atollic_TrueSTUDIO_for_STM32_x86_64_9.3.0/ARMTools/bin/../lib/gcc/arm-atollic-eabi/6.3.1/../../../../arm-atollic-eabi/lib/armv7e-m/fpu/libc.a(lib_a-ctype_.o)
                              /opt/Atollic_TrueSTUDIO_for_STM32_x86_64_9.3.0/ARMTools/bin/../lib/gcc/arm-atollic-eabi/6.3.1/../../../../arm-atollic-eabi/lib/armv7e-m/fpu/libc.a(lib_a-locale.o) (_ctype_)
/opt/Atollic_TrueSTUDIO_for_STM32_x86_64_9.3.0/ARMTools/bin/../lib/gcc/arm-atollic-eabi/6.3.1/../../../../arm-atollic-eabi/lib/armv7e-m/fpu/libm.a(lib_a-w_sqrt.o)
                              Source/stepper.o (sqrt)
/opt/Atollic_TrueSTUDIO_for_STM32_x86_64_9.3.0/ARMTools/bin/../lib/gcc/arm-atollic-eabi/6.3.1/../../../../arm-atollic-eabi/lib/armv7e-m/fpu/libm.a(lib_a-e_sqrt.o)
                              /opt/Atollic_TrueSTUDIO_for_STM32_x86_64_9.3.0/ARMTools/bin/../lib/gcc/arm-atollic-eabi/6.3.1/../../../../arm-atollic-eabi/lib/armv7e-m/fpu/libm.a(lib_a-w_sqrt.o) (__ieee754_sqrt)
/opt/Atollic_TrueSTUDIO_for_STM32_x86_64_9.3.0/ARMTools/bin/../lib/gcc/arm-atollic-eabi/6.3.1/../../../../arm-atollic-eabi/lib/armv7e-m/fpu/libm.a(lib_a-s_lib_ver.o)
                              /opt/Atollic_TrueSTUDIO_for_STM32_x86_64_9.3.0/ARMTools/bin/../lib/gcc/arm-atollic-eabi/6.3.1/../../../../arm-atollic-eabi/lib/armv7e-m/fpu/libm.a(lib_a-w_sqrt.o) (__fdlib_version)
/opt/Atollic_TrueSTUDIO_for_STM32_x86_64_9.3.0/ARMTools/bin/../lib/gcc/arm-atollic-eabi/6.3.1/../../../../arm-atollic-eabi/lib/armv7e-m/fpu/libm.a(lib_a-s_matherr.o)
                              /opt/Atollic_TrueSTUDIO_for_STM32_x86_64_9.3.0/ARMTools/bin/../lib/gcc/arm-atollic-eabi/6.3.1/../../../../arm-atollic-eabi/lib/armv7e-m/fpu/libm.a(lib_a-w_sqrt.o) (matherr)
/opt/Atollic_TrueSTUDIO_for_STM32_x86_64_9.3.0/ARMTools/bin/../lib/gcc/arm-atollic-eabi/6.3.1/armv7e-m/fpu/libgcc.a(_arm_addsubdf3.o)
                              /opt/Atollic_TrueSTUDIO_for_STM32_x86_64_9.3.0/ARMTools/bin/../lib/gcc/arm-atollic-eabi/6.3.1/../../../../arm-atollic-eabi/lib/armv7e-m/fpu/libc.a(lib_a-dtoa.o) (__aeabi_dsub)
/opt/Atollic_TrueSTUDIO_for_STM32_x86_64_9.3.0/ARMTools/bin/../lib/gcc/arm-atollic-eabi/6.3.1/armv7e-m/fpu/libgcc.a(_arm_muldivdf3.o)
                              Source/stepper.o (__aeabi_dmul)
/opt/Atollic_TrueSTUDIO_for_STM32_x86_64_9.3.0/ARMTools/bin/../lib/gcc/arm-atollic-eabi/6.3.1/armv7e-m/fpu/libgcc.a(_arm_cmpdf2.o)
                              /opt/Atollic_TrueSTUDIO_for_STM32_x86_64_9.3.0/ARMTools/bin/../lib/gcc/arm-atollic-eabi/6.3.1/../../../../arm-atollic-eabi/lib/armv7e-m/fpu/libc.a(lib_a-svfprintf.o) (__aeabi_dcmpeq)
/opt/Atollic_TrueSTUDIO_for_STM32_x86_64_9.3.0/ARMTools/bin/../lib/gcc/arm-atollic-eabi/6.3.1/armv7e-m/fpu/libgcc.a(_arm_unorddf2.o)
                              /opt/Atollic_TrueSTUDIO_for_STM32_x86_64_9.3.0/ARMTools/bin/../lib/gcc/arm-atollic-eabi/6.3.1/../../../../arm-atollic-eabi/lib/armv7e-m/fpu/libc.a(lib_a-svfprintf.o) (__aeabi_dcmpun)
/opt/Atollic_TrueSTUDIO_for_STM32_x86_64_9.3.0/ARMTools/bin/../lib/gcc/arm-atollic-eabi/6.3.1/armv7e-m/fpu/libgcc.a(_arm_fixdfsi.o)
                              Source/stepper.o (__aeabi_d2iz)
/opt/Atollic_TrueSTUDIO_for_STM32_x86_64_9.3.0/ARMTools/bin/../lib/gcc/arm-atollic-eabi/6.3.1/armv7e-m/fpu/libgcc.a(_aeabi_ldivmod.o)
                              Source/bmp280.o (__aeabi_ldivmod)
/opt/Atollic_TrueSTUDIO_for_STM32_x86_64_9.3.0/ARMTools/bin/../lib/gcc/arm-atollic-eabi/6.3.1/armv7e-m/fpu/libgcc.a(_aeabi_uldivmod.o)
                              Drivers/STM32F4xx_HAL_Driver/Src/stm32f4xx_hal_rcc.o (__aeabi_uldivmod)
/opt/Atollic_TrueSTUDIO_for_STM32_x86_64_9.3.0/ARMTools/bin/../lib/gcc/arm-atollic-eabi/6.3.1/armv7e-m/fpu/libgcc.a(_udivmoddi4.o)
                              /opt/Atollic_TrueSTUDIO_for_STM32_x86_64_9.3.0/ARMTools/bin/../lib/gcc/arm-atollic-eabi/6.3.1/armv7e-m/fpu/libgcc.a(_aeabi_ldivmod.o) (__udivmoddi4)
/opt/Atollic_TrueSTUDIO_for_STM32_x86_64_9.3.0/ARMTools/bin/../lib/gcc/arm-atollic-eabi/6.3.1/armv7e-m/fpu/libgcc.a(_dvmd_tls.o)
                              /opt/Atollic_TrueSTUDIO_for_STM32_x86_64_9.3.0/ARMTools/bin/../lib/gcc/arm-atollic-eabi/6.3.1/armv7e-m/fpu/libgcc.a(_aeabi_ldivmod.o) (__aeabi_ldiv0)

Allocating common symbols
Common symbol       size              file

hUsbDeviceFS        0x29c             USB_DEVICE/App/usb_device.o
__lock___atexit_recursive_mutex
                    0x1               /opt/Atollic_TrueSTUDIO_for_STM32_x86_64_9.3.0/ARMTools/bin/../lib/gcc/arm-atollic-eabi/6.3.1/../../../../arm-atollic-eabi/lib/armv7e-m/fpu/libc.a(lib_a-lock.o)
stp                 0x34              Core/src/main.o
__lock___arc4random_mutex
                    0x1               /opt/Atollic_TrueSTUDIO_for_STM32_x86_64_9.3.0/ARMTools/bin/../lib/gcc/arm-atollic-eabi/6.3.1/../../../../arm-atollic-eabi/lib/armv7e-m/fpu/libc.a(lib_a-lock.o)
packet              0x41c             Source/Tasks/communication.o
htim8               0x40              Core/src/tim.o
errno               0x4               /opt/Atollic_TrueSTUDIO_for_STM32_x86_64_9.3.0/ARMTools/bin/../lib/gcc/arm-atollic-eabi/6.3.1/../../../../arm-atollic-eabi/lib/armv7e-m/fpu/libc.a(lib_a-reent.o)
stepper             0xd0              Source/stepper.o
hi2c1               0x54              Core/src/i2c.o
hpcd_USB_OTG_FS     0x408             USB_DEVICE/Target/usbd_conf.o
uwTick              0x4               Drivers/STM32F4xx_HAL_Driver/Src/stm32f4xx_hal.o
xQueueRegistry      0x40              Middlewares/Third_Party/FreeRTOS/Source/queue.o
pFlash              0x20              Drivers/STM32F4xx_HAL_Driver/Src/stm32f4xx_hal_flash.o
__lock___env_recursive_mutex
                    0x1               /opt/Atollic_TrueSTUDIO_for_STM32_x86_64_9.3.0/ARMTools/bin/../lib/gcc/arm-atollic-eabi/6.3.1/../../../../arm-atollic-eabi/lib/armv7e-m/fpu/libc.a(lib_a-lock.o)
__lock___sinit_recursive_mutex
                    0x1               /opt/Atollic_TrueSTUDIO_for_STM32_x86_64_9.3.0/ARMTools/bin/../lib/gcc/arm-atollic-eabi/6.3.1/../../../../arm-atollic-eabi/lib/armv7e-m/fpu/libc.a(lib_a-lock.o)
htim5               0x40              Core/src/tim.o
UserRxBufferFS      0x100             USB_DEVICE/App/usbd_cdc_if.o
FIFO                0x48              Source/Tasks/communication.o
heartBeatTimerHandle
                    0x4               Core/src/freertos.o
envelopeTimeoutTimerHandle
                    0x4               Core/src/freertos.o
__lock___malloc_recursive_mutex
                    0x1               /opt/Atollic_TrueSTUDIO_for_STM32_x86_64_9.3.0/ARMTools/bin/../lib/gcc/arm-atollic-eabi/6.3.1/../../../../arm-atollic-eabi/lib/armv7e-m/fpu/libc.a(lib_a-lock.o)
DefaultHandle       0x4               Core/src/freertos.o
msw                 0x2               Source/hub.o
hubWatchDogTimerHandle
                    0x4               Core/src/freertos.o
hadc1               0x48              Core/src/adc.o
UserTxBufferFS      0x100             USB_DEVICE/App/usbd_cdc_if.o
ADCBuffer           0x18              Core/src/adc.o
hdac                0x14              Core/src/dac.o
hub                 0x40              Source/hub.o
hdma_adc1           0x60              Core/src/adc.o
communicationHandle
                    0x4               Core/src/freertos.o
htim6               0x40              Core/src/stm32f4xx_hal_timebase_tim.o
htim1               0x40              Core/src/tim.o
htim2               0x40              Core/src/tim.o
bmp280              0x34              Source/bmp280.o
__lock___at_quick_exit_mutex
                    0x1               /opt/Atollic_TrueSTUDIO_for_STM32_x86_64_9.3.0/ARMTools/bin/../lib/gcc/arm-atollic-eabi/6.3.1/../../../../arm-atollic-eabi/lib/armv7e-m/fpu/libc.a(lib_a-lock.o)
hcan1               0x28              Core/src/can.o
hx                  0x80              Source/hx711.o
USBD_StrDesc        0x200             USB_DEVICE/App/usbd_desc.o
__lock___dd_hash_mutex
                    0x1               /opt/Atollic_TrueSTUDIO_for_STM32_x86_64_9.3.0/ARMTools/bin/../lib/gcc/arm-atollic-eabi/6.3.1/../../../../arm-atollic-eabi/lib/armv7e-m/fpu/libc.a(lib_a-lock.o)
__lock___tz_mutex   0x1               /opt/Atollic_TrueSTUDIO_for_STM32_x86_64_9.3.0/ARMTools/bin/../lib/gcc/arm-atollic-eabi/6.3.1/../../../../arm-atollic-eabi/lib/armv7e-m/fpu/libc.a(lib_a-lock.o)
analogHandle        0x4               Core/src/freertos.o
status              0x54              Core/src/main.o
config              0x64              Source/config.o
__lock___sfp_recursive_mutex
                    0x1               /opt/Atollic_TrueSTUDIO_for_STM32_x86_64_9.3.0/ARMTools/bin/../lib/gcc/arm-atollic-eabi/6.3.1/../../../../arm-atollic-eabi/lib/armv7e-m/fpu/libc.a(lib_a-lock.o)

Memory Configuration

Name             Origin             Length             Attributes
RAM              0x0000000020000000 0x0000000000020000 xrw
CCMRAM           0x0000000010000000 0x0000000000010000 xrw
FLASH            0x0000000008000000 0x0000000000100000 xr
*default*        0x0000000000000000 0xffffffffffffffff

Linker script and memory map

LOAD /opt/Atollic_TrueSTUDIO_for_STM32_x86_64_9.3.0/ARMTools/bin/../lib/gcc/arm-atollic-eabi/6.3.1/armv7e-m/fpu/crti.o
LOAD /opt/Atollic_TrueSTUDIO_for_STM32_x86_64_9.3.0/ARMTools/bin/../lib/gcc/arm-atollic-eabi/6.3.1/armv7e-m/fpu/crtbegin.o
LOAD Core/src/adc.o
LOAD Core/src/can.o
LOAD Core/src/dac.o
LOAD Core/src/dma.o
LOAD Core/src/freertos.o
LOAD Core/src/gpio.o
LOAD Core/src/i2c.o
LOAD Core/src/main.o
LOAD Core/src/stm32f4xx_hal_msp.o
LOAD Core/src/stm32f4xx_hal_timebase_tim.o
LOAD Core/src/stm32f4xx_it.o
LOAD Core/src/syscalls.o
LOAD Core/src/system_stm32f4xx.o
LOAD Core/src/tim.o
LOAD Drivers/STM32F4xx_HAL_Driver/Src/stm32f4xx_hal.o
LOAD Drivers/STM32F4xx_HAL_Driver/Src/stm32f4xx_hal_adc.o
LOAD Drivers/STM32F4xx_HAL_Driver/Src/stm32f4xx_hal_adc_ex.o
LOAD Drivers/STM32F4xx_HAL_Driver/Src/stm32f4xx_hal_can.o
LOAD Drivers/STM32F4xx_HAL_Driver/Src/stm32f4xx_hal_cortex.o
LOAD Drivers/STM32F4xx_HAL_Driver/Src/stm32f4xx_hal_dac.o
LOAD Drivers/STM32F4xx_HAL_Driver/Src/stm32f4xx_hal_dac_ex.o
LOAD Drivers/STM32F4xx_HAL_Driver/Src/stm32f4xx_hal_dma.o
LOAD Drivers/STM32F4xx_HAL_Driver/Src/stm32f4xx_hal_dma_ex.o
LOAD Drivers/STM32F4xx_HAL_Driver/Src/stm32f4xx_hal_exti.o
LOAD Drivers/STM32F4xx_HAL_Driver/Src/stm32f4xx_hal_flash.o
LOAD Drivers/STM32F4xx_HAL_Driver/Src/stm32f4xx_hal_flash_ex.o
LOAD Drivers/STM32F4xx_HAL_Driver/Src/stm32f4xx_hal_flash_ramfunc.o
LOAD Drivers/STM32F4xx_HAL_Driver/Src/stm32f4xx_hal_gpio.o
LOAD Drivers/STM32F4xx_HAL_Driver/Src/stm32f4xx_hal_i2c.o
LOAD Drivers/STM32F4xx_HAL_Driver/Src/stm32f4xx_hal_i2c_ex.o
LOAD Drivers/STM32F4xx_HAL_Driver/Src/stm32f4xx_hal_pcd.o
LOAD Drivers/STM32F4xx_HAL_Driver/Src/stm32f4xx_hal_pcd_ex.o
LOAD Drivers/STM32F4xx_HAL_Driver/Src/stm32f4xx_hal_pwr.o
LOAD Drivers/STM32F4xx_HAL_Driver/Src/stm32f4xx_hal_pwr_ex.o
LOAD Drivers/STM32F4xx_HAL_Driver/Src/stm32f4xx_hal_rcc.o
LOAD Drivers/STM32F4xx_HAL_Driver/Src/stm32f4xx_hal_rcc_ex.o
LOAD Drivers/STM32F4xx_HAL_Driver/Src/stm32f4xx_hal_tim.o
LOAD Drivers/STM32F4xx_HAL_Driver/Src/stm32f4xx_hal_tim_ex.o
LOAD Drivers/STM32F4xx_HAL_Driver/Src/stm32f4xx_ll_usb.o
LOAD Middlewares/ST/STM32_USB_Device_Library/Class/CDC/Src/usbd_cdc.o
LOAD Middlewares/ST/STM32_USB_Device_Library/Core/Src/usbd_core.o
LOAD Middlewares/ST/STM32_USB_Device_Library/Core/Src/usbd_ctlreq.o
LOAD Middlewares/ST/STM32_USB_Device_Library/Core/Src/usbd_ioreq.o
LOAD Middlewares/Third_Party/FreeRTOS/Source/CMSIS_RTOS_V2/cmsis_os2.o
LOAD Middlewares/Third_Party/FreeRTOS/Source/croutine.o
LOAD Middlewares/Third_Party/FreeRTOS/Source/event_groups.o
LOAD Middlewares/Third_Party/FreeRTOS/Source/list.o
LOAD Middlewares/Third_Party/FreeRTOS/Source/portable/GCC/ARM_CM4F/port.o
LOAD Middlewares/Third_Party/FreeRTOS/Source/portable/MemMang/heap_4.o
LOAD Middlewares/Third_Party/FreeRTOS/Source/queue.o
LOAD Middlewares/Third_Party/FreeRTOS/Source/stream_buffer.o
LOAD Middlewares/Third_Party/FreeRTOS/Source/tasks.o
LOAD Middlewares/Third_Party/FreeRTOS/Source/timers.o
LOAD Source/Tasks/analog.o
LOAD Source/Tasks/communication.o
LOAD Source/Timers/envelope.o
LOAD Source/Timers/heartbeat.o
LOAD Source/bmp280.o
LOAD Source/config.o
LOAD Source/crc32.o
LOAD Source/debug.o
LOAD Source/hub.o
LOAD Source/hx711.o
LOAD Source/stepper.o
LOAD USB_DEVICE/App/usb_device.o
LOAD USB_DEVICE/App/usbd_cdc_if.o
LOAD USB_DEVICE/App/usbd_desc.o
LOAD USB_DEVICE/Target/usbd_conf.o
LOAD startup/startup_stm32f407xx.o
                0x0000000000000080                malloc_getpagesize_P = 0x80
START GROUP
LOAD /opt/Atollic_TrueSTUDIO_for_STM32_x86_64_9.3.0/ARMTools/bin/../lib/gcc/arm-atollic-eabi/6.3.1/../../../../arm-atollic-eabi/lib/armv7e-m/fpu/libc.a
LOAD /opt/Atollic_TrueSTUDIO_for_STM32_x86_64_9.3.0/ARMTools/bin/../lib/gcc/arm-atollic-eabi/6.3.1/../../../../arm-atollic-eabi/lib/armv7e-m/fpu/libm.a
END GROUP
START GROUP
LOAD /opt/Atollic_TrueSTUDIO_for_STM32_x86_64_9.3.0/ARMTools/bin/../lib/gcc/arm-atollic-eabi/6.3.1/armv7e-m/fpu/libgcc.a
LOAD /opt/Atollic_TrueSTUDIO_for_STM32_x86_64_9.3.0/ARMTools/bin/../lib/gcc/arm-atollic-eabi/6.3.1/../../../../arm-atollic-eabi/lib/armv7e-m/fpu/libc.a
END GROUP
START GROUP
LOAD /opt/Atollic_TrueSTUDIO_for_STM32_x86_64_9.3.0/ARMTools/bin/../lib/gcc/arm-atollic-eabi/6.3.1/armv7e-m/fpu/libgcc.a
LOAD /opt/Atollic_TrueSTUDIO_for_STM32_x86_64_9.3.0/ARMTools/bin/../lib/gcc/arm-atollic-eabi/6.3.1/../../../../arm-atollic-eabi/lib/armv7e-m/fpu/libc.a
LOAD /opt/Atollic_TrueSTUDIO_for_STM32_x86_64_9.3.0/ARMTools/bin/../lib/gcc/arm-atollic-eabi/6.3.1/../../../../arm-atollic-eabi/lib/armv7e-m/fpu/libnosys.a
END GROUP
LOAD /opt/Atollic_TrueSTUDIO_for_STM32_x86_64_9.3.0/ARMTools/bin/../lib/gcc/arm-atollic-eabi/6.3.1/armv7e-m/fpu/crtend.o
LOAD /opt/Atollic_TrueSTUDIO_for_STM32_x86_64_9.3.0/ARMTools/bin/../lib/gcc/arm-atollic-eabi/6.3.1/armv7e-m/fpu/crtn.o
                0x0000000020020000                _estack = 0x20020000
                0x0000000000000300                _Min_Heap_Size = 0x300
                0x0000000000000400                _Min_Stack_Size = 0x400

.isr_vector     0x0000000008000000      0x188
                0x0000000008000000                . = ALIGN (0x4)
 *(.isr_vector)
 .isr_vector    0x0000000008000000      0x188 startup/startup_stm32f407xx.o
                0x0000000008000000                g_pfnVectors
                0x0000000008000188                . = ALIGN (0x4)

.text           0x0000000008000190    0x1c7a8
                0x0000000008000190                . = ALIGN (0x4)
 *(.text)
 .text          0x0000000008000190        0x0 /opt/Atollic_TrueSTUDIO_for_STM32_x86_64_9.3.0/ARMTools/bin/../lib/gcc/arm-atollic-eabi/6.3.1/armv7e-m/fpu/crti.o
 .text          0x0000000008000190       0x40 /opt/Atollic_TrueSTUDIO_for_STM32_x86_64_9.3.0/ARMTools/bin/../lib/gcc/arm-atollic-eabi/6.3.1/armv7e-m/fpu/crtbegin.o
 .text          0x00000000080001d0      0x2d4 Core/src/adc.o
                0x00000000080001d0                MX_ADC1_Init
                0x0000000008000360                HAL_ADC_MspInit
                0x0000000008000458                HAL_ADC_MspDeInit
 .text          0x00000000080004a4       0xd0 Core/src/can.o
                0x00000000080004a4                MX_CAN1_Init
                0x00000000080004dc                HAL_CAN_MspInit
                0x0000000008000548                HAL_CAN_MspDeInit
 .text          0x0000000008000574       0xfc Core/src/dac.o
                0x0000000008000574                MX_DAC_Init
                0x00000000080005c8                HAL_DAC_MspInit
                0x000000000800063c                HAL_DAC_MspDeInit
 .text          0x0000000008000670       0x34 Core/src/dma.o
                0x0000000008000670                MX_DMA_Init
 .text          0x00000000080006a4      0x16c Core/src/freertos.o
                0x00000000080006a4                StartDefaultTask
                0x0000000008000768                configureTimerForRunTimeStats
                0x000000000800076a                getRunTimeCounterValue
                0x000000000800076e                vApplicationStackOverflowHook
                0x0000000008000770                MX_FREERTOS_Init
 .text          0x0000000008000810       0xf4 Core/src/gpio.o
                0x0000000008000810                MX_GPIO_Init
 .text          0x0000000008000904       0xdc Core/src/i2c.o
                0x0000000008000904                MX_I2C1_Init
                0x0000000008000940                HAL_I2C_MspInit
                0x00000000080009b4                HAL_I2C_MspDeInit
 .text          0x00000000080009e0      0x17c Core/src/main.o
                0x00000000080009e0                SystemClock_Config
                0x0000000008000a78                main
                0x0000000008000b40                HAL_TIM_PeriodElapsedCallback
                0x0000000008000b58                Error_Handler
 .text          0x0000000008000b5c       0x44 Core/src/stm32f4xx_hal_msp.o
                0x0000000008000b5c                HAL_MspInit
 .text          0x0000000008000ba0       0xa4 Core/src/stm32f4xx_hal_timebase_tim.o
                0x0000000008000ba0                HAL_InitTick
                0x0000000008000c1c                HAL_SuspendTick
                0x0000000008000c30                HAL_ResumeTick
 .text          0x0000000008000c44       0x44 Core/src/stm32f4xx_it.o
                0x0000000008000c44                NMI_Handler
                0x0000000008000c46                HardFault_Handler
                0x0000000008000c48                MemManage_Handler
                0x0000000008000c4a                BusFault_Handler
                0x0000000008000c4c                UsageFault_Handler
                0x0000000008000c4e                DebugMon_Handler
                0x0000000008000c50                TIM6_DAC_IRQHandler
                0x0000000008000c68                DMA2_Stream0_IRQHandler
                0x0000000008000c78                OTG_FS_IRQHandler
 .text          0x0000000008000c88      0x11c Core/src/syscalls.o
                0x0000000008000c88                initialise_monitor_handles
                0x0000000008000c8a                _getpid
                0x0000000008000c8e                _kill
                0x0000000008000c9e                _exit
                0x0000000008000caa                _read
                0x0000000008000ce4                _sbrk
                0x0000000008000d20                _close
                0x0000000008000d26                _fstat
                0x0000000008000d30                _isatty
                0x0000000008000d34                _lseek
                0x0000000008000d38                _open
                0x0000000008000d42                _wait
                0x0000000008000d52                _unlink
                0x0000000008000d62                _times
                0x0000000008000d68                _stat
                0x0000000008000d72                _link
                0x0000000008000d82                _fork
                0x0000000008000d92                _execve
 .text          0x0000000008000da4       0xbc Core/src/system_stm32f4xx.o
                0x0000000008000da4                SystemInit
                0x0000000008000dc0                SystemCoreClockUpdate
 .text          0x0000000008000e60      0x4e0 Core/src/tim.o
                0x0000000008000e60                MX_TIM1_Init
                0x0000000008000f3c                MX_TIM2_Init
                0x0000000008000fac                MX_TIM5_Init
                0x000000000800108c                MX_TIM8_Init
                0x00000000080011a4                HAL_TIM_Base_MspInit
                0x00000000080012b4                HAL_TIM_Base_MspDeInit
 .text          0x0000000008001340      0x218 Drivers/STM32F4xx_HAL_Driver/Src/stm32f4xx_hal.o
                0x0000000008001342                HAL_MspDeInit
                0x0000000008001344                HAL_DeInit
                0x00000000080013b8                HAL_Init
                0x00000000080013ec                HAL_IncTick
                0x0000000008001404                HAL_GetTick
                0x0000000008001410                HAL_GetTickPrio
                0x000000000800141c                HAL_SetTickFreq
                0x0000000008001444                HAL_GetTickFreq
                0x0000000008001450                HAL_Delay
                0x0000000008001498                HAL_GetHalVersion
                0x00000000080014a0                HAL_GetREVID
                0x00000000080014ac                HAL_GetDEVID
                0x00000000080014bc                HAL_DBGMCU_EnableDBGSleepMode
                0x00000000080014cc                HAL_DBGMCU_DisableDBGSleepMode
                0x00000000080014dc                HAL_DBGMCU_EnableDBGStopMode
                0x00000000080014ec                HAL_DBGMCU_DisableDBGStopMode
                0x00000000080014fc                HAL_DBGMCU_EnableDBGStandbyMode
                0x000000000800150c                HAL_DBGMCU_DisableDBGStandbyMode
                0x000000000800151c                HAL_EnableCompensationCell
                0x0000000008001528                HAL_DisableCompensationCell
                0x0000000008001534                HAL_GetUIDw0
                0x0000000008001540                HAL_GetUIDw1
                0x000000000800154c                HAL_GetUIDw2
 .text          0x0000000008001558      0xbcc Drivers/STM32F4xx_HAL_Driver/Src/stm32f4xx_hal_adc.o
                0x000000000800168e                HAL_ADC_Init
                0x00000000080016e6                HAL_ADC_DeInit
                0x0000000008001720                HAL_ADC_Start
                0x0000000008001854                HAL_ADC_Stop
                0x0000000008001894                HAL_ADC_PollForConversion
                0x000000000800194a                HAL_ADC_PollForEvent
                0x00000000080019b6                HAL_ADC_Start_IT
                0x0000000008001afc                HAL_ADC_Stop_IT
                0x0000000008001b48                HAL_ADC_Start_DMA
                0x0000000008001cc8                HAL_ADC_Stop_DMA
                0x0000000008001d26                HAL_ADC_GetValue
                0x0000000008001d2c                HAL_ADC_ConvCpltCallback
                0x0000000008001d2e                HAL_ADC_ConvHalfCpltCallback
                0x0000000008001d3a                HAL_ADC_LevelOutOfWindowCallback
                0x0000000008001d3c                HAL_ADC_ErrorCallback
                0x0000000008001d3e                HAL_ADC_IRQHandler
                0x0000000008001f14                HAL_ADC_ConfigChannel
                0x00000000080020a4                HAL_ADC_AnalogWDGConfig
                0x000000000800211a                HAL_ADC_GetState
                0x000000000800211e                HAL_ADC_GetError
 .text          0x0000000008002124      0x81c Drivers/STM32F4xx_HAL_Driver/Src/stm32f4xx_hal_adc_ex.o
                0x00000000080021a6                HAL_ADCEx_InjectedStart
                0x0000000008002298                HAL_ADCEx_InjectedStart_IT
                0x0000000008002394                HAL_ADCEx_InjectedStop
                0x00000000080023f6                HAL_ADCEx_InjectedPollForConversion
                0x000000000800249c                HAL_ADCEx_InjectedStop_IT
                0x0000000008002506                HAL_ADCEx_InjectedGetValue
                0x0000000008002546                HAL_ADCEx_MultiModeStart_DMA
                0x0000000008002668                HAL_ADCEx_MultiModeStop_DMA
                0x00000000080026cc                HAL_ADCEx_MultiModeGetValue
                0x00000000080026d8                HAL_ADCEx_InjectedConvCpltCallback
                0x00000000080026da                HAL_ADCEx_InjectedConfigChannel
                0x00000000080028e8                HAL_ADCEx_MultiModeConfigChannel
 .text          0x0000000008002940      0xa24 Drivers/STM32F4xx_HAL_Driver/Src/stm32f4xx_hal_can.o
                0x0000000008002942                HAL_CAN_Init
                0x0000000008002a90                HAL_CAN_ConfigFilter
                0x0000000008002bbc                HAL_CAN_Start
                0x0000000008002c18                HAL_CAN_Stop
                0x0000000008002c7a                HAL_CAN_DeInit
                0x0000000008002ca2                HAL_CAN_RequestSleep
                0x0000000008002cc8                HAL_CAN_WakeUp
                0x0000000008002d20                HAL_CAN_IsSleepActive
                0x0000000008002d42                HAL_CAN_AddTxMessage
                0x0000000008002e2c                HAL_CAN_AbortTxRequest
                0x0000000008002e7c                HAL_CAN_GetTxMailboxesFreeLevel
                0x0000000008002eb2                HAL_CAN_IsTxMessagePending
                0x0000000008002ed6                HAL_CAN_GetTxTimestamp
                0x0000000008002efc                HAL_CAN_GetRxMessage
                0x0000000008003030                HAL_CAN_GetRxFifoFillLevel
                0x0000000008003056                HAL_CAN_ActivateNotification
                0x000000000800307a                HAL_CAN_DeactivateNotification
                0x00000000080030a0                HAL_CAN_TxMailbox0CompleteCallback
                0x00000000080030a2                HAL_CAN_TxMailbox1CompleteCallback
                0x00000000080030a4                HAL_CAN_TxMailbox2CompleteCallback
                0x00000000080030a6                HAL_CAN_TxMailbox0AbortCallback
                0x00000000080030a8                HAL_CAN_TxMailbox1AbortCallback
                0x00000000080030aa                HAL_CAN_TxMailbox2AbortCallback
                0x00000000080030ac                HAL_CAN_RxFifo0MsgPendingCallback
                0x00000000080030ae                HAL_CAN_RxFifo0FullCallback
                0x00000000080030b0                HAL_CAN_RxFifo1MsgPendingCallback
                0x00000000080030b2                HAL_CAN_RxFifo1FullCallback
                0x00000000080030b4                HAL_CAN_SleepCallback
                0x00000000080030b6                HAL_CAN_WakeUpFromRxMsgCallback
                0x00000000080030b8                HAL_CAN_ErrorCallback
                0x00000000080030ba                HAL_CAN_IRQHandler
                0x0000000008003312                HAL_CAN_GetState
                0x000000000800333e                HAL_CAN_GetError
                0x0000000008003342                HAL_CAN_ResetError
 .text          0x0000000008003364      0x2d4 Drivers/STM32F4xx_HAL_Driver/Src/stm32f4xx_hal_cortex.o
                0x0000000008003364                HAL_NVIC_SetPriorityGrouping
                0x0000000008003388                HAL_NVIC_SetPriority
                0x00000000080033ec                HAL_NVIC_EnableIRQ
                0x0000000008003408                HAL_NVIC_DisableIRQ
                0x0000000008003430                HAL_NVIC_SystemReset
                0x0000000008003454                HAL_SYSTICK_Config
                0x0000000008003480                HAL_MPU_Disable
                0x00000000080034a0                HAL_MPU_Enable
                0x00000000080034c4                HAL_MPU_ConfigRegion
                0x0000000008003518                HAL_NVIC_GetPriorityGrouping
                0x0000000008003528                HAL_NVIC_GetPriority
                0x0000000008003584                HAL_NVIC_SetPendingIRQ
                0x00000000080035a4                HAL_NVIC_GetPendingIRQ
                0x00000000080035c8                HAL_NVIC_ClearPendingIRQ
                0x00000000080035e8                HAL_NVIC_GetActive
                0x000000000800360c                HAL_SYSTICK_CLKSourceConfig
                0x000000000800362c                HAL_SYSTICK_Callback
                0x000000000800362e                HAL_SYSTICK_IRQHandler
 .text          0x0000000008003638      0x328 Drivers/STM32F4xx_HAL_Driver/Src/stm32f4xx_hal_dac.o
                0x000000000800363a                HAL_DAC_Init
                0x0000000008003660                HAL_DAC_DeInit
                0x000000000800367c                HAL_DAC_Start
                0x00000000080036ea                HAL_DAC_Stop
                0x0000000008003706                HAL_DAC_Start_DMA
                0x00000000080037f8                HAL_DAC_Stop_DMA
                0x0000000008003838                HAL_DAC_GetValue
                0x0000000008003846                HAL_DAC_ConvCpltCallbackCh1
                0x0000000008003858                HAL_DAC_ConvHalfCpltCallbackCh1
                0x0000000008003864                HAL_DAC_ErrorCallbackCh1
                0x000000000800387e                HAL_DAC_DMAUnderrunCallbackCh1
                0x0000000008003880                HAL_DAC_IRQHandler
                0x00000000080038e0                HAL_DAC_ConfigChannel
                0x000000000800392a                HAL_DAC_SetValue
                0x0000000008003958                HAL_DAC_GetState
                0x000000000800395c                HAL_DAC_GetError
 .text          0x0000000008003960       0xd2 Drivers/STM32F4xx_HAL_Driver/Src/stm32f4xx_hal_dac_ex.o
                0x0000000008003960                HAL_DACEx_DualGetValue
                0x000000000800396c                HAL_DACEx_TriangleWaveGenerate
                0x00000000080039a6                HAL_DACEx_NoiseWaveGenerate
                0x00000000080039e0                HAL_DACEx_DualSetValue
                0x00000000080039f8                HAL_DACEx_ConvCpltCallbackCh2
                0x00000000080039fa                HAL_DACEx_ConvHalfCpltCallbackCh2
                0x00000000080039fc                HAL_DACEx_ErrorCallbackCh2
                0x00000000080039fe                HAL_DACEx_DMAUnderrunCallbackCh2
                0x0000000008003a00                DAC_DMAConvCpltCh2
                0x0000000008003a10                DAC_DMAHalfConvCpltCh2
                0x0000000008003a1a                DAC_DMAErrorCh2
 *fill*         0x0000000008003a32        0x2 
 .text          0x0000000008003a34      0x774 Drivers/STM32F4xx_HAL_Driver/Src/stm32f4xx_hal_dma.o
                0x0000000008003b2a                HAL_DMA_Init
                0x0000000008003bfc                HAL_DMA_DeInit
                0x0000000008003c62                HAL_DMA_Start
                0x0000000008003caa                HAL_DMA_Start_IT
                0x0000000008003d14                HAL_DMA_Abort
                0x0000000008003da8                HAL_DMA_Abort_IT
                0x0000000008003dce                HAL_DMA_PollForTransfer
                0x0000000008003ef4                HAL_DMA_IRQHandler
                0x00000000080040d0                HAL_DMA_RegisterCallback
                0x000000000800412e                HAL_DMA_UnRegisterCallback
                0x000000000800419e                HAL_DMA_GetState
                0x00000000080041a4                HAL_DMA_GetError
 .text          0x00000000080041a8      0xf84 Drivers/STM32F4xx_HAL_Driver/Src/stm32f4xx_hal_dma_ex.o
                0x00000000080041cc                HAL_DMAEx_MultiBufferStart
                0x000000000800422a                HAL_DMAEx_MultiBufferStart_IT
                0x000000000800511c                HAL_DMAEx_ChangeMemory
 .text          0x000000000800512c      0x280 Drivers/STM32F4xx_HAL_Driver/Src/stm32f4xx_hal_exti.o
                0x000000000800512c                HAL_EXTI_SetConfigLine
                0x0000000008005204                HAL_EXTI_GetConfigLine
                0x00000000080052b0                HAL_EXTI_ClearConfigLine
                0x000000000800532c                HAL_EXTI_RegisterCallback
                0x0000000008005338                HAL_EXTI_GetHandle
                0x0000000008005344                HAL_EXTI_IRQHandler
                0x0000000008005368                HAL_EXTI_GetPending
                0x0000000008005384                HAL_EXTI_ClearPending
                0x0000000008005398                HAL_EXTI_GenerateSWI
 .text          0x00000000080053ac      0x41c Drivers/STM32F4xx_HAL_Driver/Src/stm32f4xx_hal_flash.o
                0x00000000080054d0                HAL_FLASH_Program_IT
                0x0000000008005540                HAL_FLASH_EndOfOperationCallback
                0x0000000008005542                HAL_FLASH_OperationErrorCallback
                0x0000000008005544                HAL_FLASH_IRQHandler
                0x0000000008005638                HAL_FLASH_Unlock
                0x0000000008005668                HAL_FLASH_Lock
                0x000000000800567c                HAL_FLASH_OB_Unlock
                0x00000000080056a4                HAL_FLASH_OB_Lock
                0x00000000080056b8                HAL_FLASH_GetError
                0x00000000080056c4                FLASH_WaitForLastOperation
                0x0000000008005728                HAL_FLASH_Program
                0x00000000080057ac                HAL_FLASH_OB_Launch
 .text          0x00000000080057c8      0x374 Drivers/STM32F4xx_HAL_Driver/Src/stm32f4xx_hal_flash_ex.o
                0x00000000080058e4                HAL_FLASHEx_OBProgram
                0x0000000008005968                HAL_FLASHEx_OBGetConfig
                0x000000000800598a                FLASH_Erase_Sector
                0x00000000080059dc                HAL_FLASHEx_Erase_IT
                0x0000000008005a48                FLASH_FlushCaches
                0x0000000008005aa8                HAL_FLASHEx_Erase
 .text          0x0000000008005b3c        0x0 Drivers/STM32F4xx_HAL_Driver/Src/stm32f4xx_hal_flash_ramfunc.o
 .text          0x0000000008005b3c      0x388 Drivers/STM32F4xx_HAL_Driver/Src/stm32f4xx_hal_gpio.o
                0x0000000008005b3c                HAL_GPIO_Init
                0x0000000008005d18                HAL_GPIO_DeInit
                0x0000000008005e4c                HAL_GPIO_ReadPin
                0x0000000008005e5a                HAL_GPIO_WritePin
                0x0000000008005e66                HAL_GPIO_TogglePin
                0x0000000008005e78                HAL_GPIO_LockPin
                0x0000000008005ea6                HAL_GPIO_EXTI_Callback
                0x0000000008005ea8                HAL_GPIO_EXTI_IRQHandler
 .text          0x0000000008005ec4     0x3e2c Drivers/STM32F4xx_HAL_Driver/Src/stm32f4xx_hal_i2c.o
                0x000000000800694e                HAL_I2C_Init
                0x0000000008006b02                HAL_I2C_DeInit
                0x0000000008006b34                HAL_I2C_Master_Transmit
                0x0000000008006ca8                HAL_I2C_Master_Receive
                0x0000000008006f84                HAL_I2C_Slave_Transmit
                0x0000000008007120                HAL_I2C_Slave_Receive
                0x0000000008007298                HAL_I2C_Master_Transmit_IT
                0x0000000008007370                HAL_I2C_Master_Receive_IT
                0x0000000008007454                HAL_I2C_Slave_Transmit_IT
                0x00000000080074e4                HAL_I2C_Slave_Receive_IT
                0x0000000008007574                HAL_I2C_Master_Transmit_DMA
                0x00000000080076e4                HAL_I2C_Master_Receive_DMA
                0x0000000008007854                HAL_I2C_Slave_Transmit_DMA
                0x0000000008007940                HAL_I2C_Slave_Receive_DMA
                0x0000000008007a2c                HAL_I2C_Mem_Write
                0x0000000008007b94                HAL_I2C_Mem_Read
                0x0000000008007e70                HAL_I2C_Mem_Write_IT
                0x0000000008007f54                HAL_I2C_Mem_Read_IT
                0x000000000800804c                HAL_I2C_Mem_Write_DMA
                0x00000000080081d4                HAL_I2C_Mem_Read_DMA
                0x00000000080083a0                HAL_I2C_IsDeviceReady
                0x0000000008008538                HAL_I2C_Master_Seq_Transmit_IT
                0x0000000008008644                HAL_I2C_Master_Seq_Transmit_DMA
                0x0000000008008818                HAL_I2C_Master_Seq_Receive_IT
                0x0000000008008974                HAL_I2C_Master_Seq_Receive_DMA
                0x0000000008008bb4                HAL_I2C_Slave_Seq_Transmit_IT
                0x0000000008008c42                HAL_I2C_Slave_Seq_Transmit_DMA
                0x0000000008008dc0                HAL_I2C_Slave_Seq_Receive_IT
                0x0000000008008e4e                HAL_I2C_Slave_Seq_Receive_DMA
                0x0000000008008fcc                HAL_I2C_EnableListen_IT
                0x000000000800900a                HAL_I2C_DisableListen_IT
                0x000000000800904c                HAL_I2C_MasterTxCpltCallback
                0x000000000800904e                HAL_I2C_MasterRxCpltCallback
                0x0000000008009050                HAL_I2C_SlaveTxCpltCallback
                0x000000000800909e                HAL_I2C_SlaveRxCpltCallback
                0x00000000080090ec                HAL_I2C_AddrCallback
                0x000000000800913c                HAL_I2C_ListenCpltCallback
                0x00000000080091d0                HAL_I2C_MemTxCpltCallback
                0x0000000008009350                HAL_I2C_MemRxCpltCallback
                0x0000000008009520                HAL_I2C_ErrorCallback
                0x0000000008009688                HAL_I2C_AbortCpltCallback
                0x0000000008009894                HAL_I2C_Master_Abort_IT
                0x0000000008009a80                HAL_I2C_EV_IRQHandler
                0x0000000008009c18                HAL_I2C_ER_IRQHandler
                0x0000000008009cde                HAL_I2C_GetState
                0x0000000008009ce4                HAL_I2C_GetMode
                0x0000000008009cea                HAL_I2C_GetError
 .text          0x0000000008009cf0        0x0 Drivers/STM32F4xx_HAL_Driver/Src/stm32f4xx_hal_i2c_ex.o
 .text          0x0000000008009cf0      0xc34 Drivers/STM32F4xx_HAL_Driver/Src/stm32f4xx_hal_pcd.o
                0x0000000008009dc4                HAL_PCD_Init
                0x0000000008009ee8                HAL_PCD_Start
                0x0000000008009f2a                HAL_PCD_Stop
                0x0000000008009f6a                HAL_PCD_DeInit
                0x000000000800a108                HAL_PCD_IRQHandler
                0x000000000800a5a8                HAL_PCD_DevConnect
                0x000000000800a5e4                HAL_PCD_DevDisconnect
                0x000000000800a608                HAL_PCD_SetAddress
                0x000000000800a630                HAL_PCD_EP_Open
                0x000000000800a6b2                HAL_PCD_EP_Close
                0x000000000800a720                HAL_PCD_EP_Receive
                0x000000000800a77c                HAL_PCD_EP_GetRxCount
                0x000000000800a78e                HAL_PCD_EP_Transmit
                0x000000000800a7e2                HAL_PCD_EP_SetStall
                0x000000000800a864                HAL_PCD_EP_ClrStall
                0x000000000800a8d2                HAL_PCD_EP_Flush
                0x000000000800a908                HAL_PCD_ActivateRemoteWakeup
                0x000000000800a912                HAL_PCD_DeActivateRemoteWakeup
                0x000000000800a91c                HAL_PCD_GetState
 .text          0x000000000800a924       0x54 Drivers/STM32F4xx_HAL_Driver/Src/stm32f4xx_hal_pcd_ex.o
                0x000000000800a924                HAL_PCDEx_SetTxFiFo
                0x000000000800a96c                HAL_PCDEx_SetRxFiFo
                0x000000000800a974                HAL_PCDEx_LPM_Callback
                0x000000000800a976                HAL_PCDEx_BCD_Callback
 .text          0x000000000800a978      0x1c8 Drivers/STM32F4xx_HAL_Driver/Src/stm32f4xx_hal_pwr.o
                0x000000000800a978                HAL_PWR_DeInit
                0x000000000800a990                HAL_PWR_EnableBkUpAccess
                0x000000000800a99c                HAL_PWR_DisableBkUpAccess
                0x000000000800a9a8                HAL_PWR_ConfigPVD
                0x000000000800aa2c                HAL_PWR_EnablePVD
                0x000000000800aa38                HAL_PWR_DisablePVD
                0x000000000800aa44                HAL_PWR_EnableWakeUpPin
                0x000000000800aa54                HAL_PWR_DisableWakeUpPin
                0x000000000800aa64                HAL_PWR_EnterSLEEPMode
                0x000000000800aa84                HAL_PWR_EnterSTOPMode
                0x000000000800aabc                HAL_PWR_EnterSTANDBYMode
                0x000000000800aadc                HAL_PWR_PVDCallback
                0x000000000800aade                HAL_PWR_PVD_IRQHandler
                0x000000000800ab00                HAL_PWR_EnableSleepOnExit
                0x000000000800ab10                HAL_PWR_DisableSleepOnExit
                0x000000000800ab20                HAL_PWR_EnableSEVOnPend
                0x000000000800ab30                HAL_PWR_DisableSEVOnPend
 .text          0x000000000800ab40       0xf4 Drivers/STM32F4xx_HAL_Driver/Src/stm32f4xx_hal_pwr_ex.o
                0x000000000800ab40                HAL_PWREx_EnableBkUpReg
                0x000000000800ab74                HAL_PWREx_DisableBkUpReg
                0x000000000800aba8                HAL_PWREx_EnableFlashPowerDown
                0x000000000800abb4                HAL_PWREx_DisableFlashPowerDown
                0x000000000800abc0                HAL_PWREx_GetVoltageRange
                0x000000000800abd0                HAL_PWREx_ControlVoltageScaling
 .text          0x000000000800ac34      0x850 Drivers/STM32F4xx_HAL_Driver/Src/stm32f4xx_hal_rcc.o
                0x000000000800ac38                HAL_RCC_OscConfig
                0x000000000800b024                HAL_RCC_MCOConfig
                0x000000000800b0c0                HAL_RCC_EnableCSS
                0x000000000800b0cc                HAL_RCC_DisableCSS
                0x000000000800b0d8                HAL_RCC_GetSysClockFreq
                0x000000000800b1ac                HAL_RCC_ClockConfig
                0x000000000800b30c                HAL_RCC_GetHCLKFreq
                0x000000000800b318                HAL_RCC_GetPCLK1Freq
                0x000000000800b338                HAL_RCC_GetPCLK2Freq
                0x000000000800b358                HAL_RCC_GetOscConfig
                0x000000000800b424                HAL_RCC_GetClockConfig
                0x000000000800b460                HAL_RCC_CSSCallback
                0x000000000800b462                HAL_RCC_NMI_IRQHandler
 .text          0x000000000800b484      0x3d4 Drivers/STM32F4xx_HAL_Driver/Src/stm32f4xx_hal_rcc_ex.o
                0x000000000800b484                HAL_RCCEx_PeriphCLKConfig
                0x000000000800b5d8                HAL_RCCEx_GetPeriphCLKConfig
                0x000000000800b608                HAL_RCCEx_GetPeriphCLKFreq
                0x000000000800b67c                HAL_RCCEx_EnablePLLI2S
                0x000000000800b6e4                HAL_RCCEx_DisablePLLI2S
                0x000000000800b718                HAL_RCC_DeInit
 .text          0x000000000800b858     0x2760 Drivers/STM32F4xx_HAL_Driver/Src/stm32f4xx_hal_tim.o
                0x000000000800ba84                HAL_TIM_Base_DeInit
                0x000000000800babe                HAL_TIM_Base_Start
                0x000000000800bae2                HAL_TIM_Base_Stop
                0x000000000800bb10                HAL_TIM_Base_Start_IT
                0x000000000800bb32                HAL_TIM_Base_Stop_IT
                0x000000000800bb5e                HAL_TIM_Base_Start_DMA
                0x000000000800bbe0                HAL_TIM_Base_Stop_DMA
                0x000000000800bc1c                HAL_TIM_OC_MspInit
                0x000000000800bc1e                HAL_TIM_OC_MspDeInit
                0x000000000800bc20                HAL_TIM_OC_DeInit
                0x000000000800bc5a                HAL_TIM_PWM_MspInit
                0x000000000800bc5c                HAL_TIM_PWM_MspDeInit
                0x000000000800bc5e                HAL_TIM_PWM_DeInit
                0x000000000800bc98                HAL_TIM_IC_MspInit
                0x000000000800bc9a                HAL_TIM_IC_MspDeInit
                0x000000000800bc9c                HAL_TIM_IC_DeInit
                0x000000000800bcd6                HAL_TIM_OnePulse_MspInit
                0x000000000800bcd8                HAL_TIM_OnePulse_MspDeInit
                0x000000000800bcda                HAL_TIM_OnePulse_DeInit
                0x000000000800bd14                HAL_TIM_Encoder_MspInit
                0x000000000800bd16                HAL_TIM_Encoder_MspDeInit
                0x000000000800bd18                HAL_TIM_Encoder_DeInit
                0x000000000800bd52                HAL_TIM_DMABurst_WriteStart
                0x000000000800bf34                HAL_TIM_DMABurst_WriteStop
                0x000000000800bfae                HAL_TIM_DMABurst_ReadStart
                0x000000000800c190                HAL_TIM_DMABurst_ReadStop
                0x000000000800c20a                HAL_TIM_GenerateEvent
                0x000000000800c230                HAL_TIM_ConfigTI1Input
                0x000000000800c240                HAL_TIM_ReadCapturedValue
                0x000000000800c284                HAL_TIM_PeriodElapsedHalfCpltCallback
                0x000000000800c296                HAL_TIM_OC_DelayElapsedCallback
                0x000000000800c298                HAL_TIM_IC_CaptureCallback
                0x000000000800c29a                TIM_DMACaptureCplt
                0x000000000800c2e0                HAL_TIM_IC_CaptureHalfCpltCallback
                0x000000000800c2e2                TIM_DMACaptureHalfCplt
                0x000000000800c328                HAL_TIM_PWM_PulseFinishedCallback
                0x000000000800c32a                TIM_DMADelayPulseCplt
                0x000000000800c370                HAL_TIM_PWM_PulseFinishedHalfCpltCallback
                0x000000000800c372                TIM_DMADelayPulseHalfCplt
                0x000000000800c3b8                HAL_TIM_TriggerCallback
                0x000000000800c3ba                HAL_TIM_IRQHandler
                0x000000000800c544                HAL_TIM_TriggerHalfCpltCallback
                0x000000000800c556                HAL_TIM_ErrorCallback
                0x000000000800c558                TIM_DMAError
                0x000000000800c568                HAL_TIM_Base_GetState
                0x000000000800c56e                HAL_TIM_OC_GetState
                0x000000000800c574                HAL_TIM_PWM_GetState
                0x000000000800c57a                HAL_TIM_IC_GetState
                0x000000000800c580                HAL_TIM_OnePulse_GetState
                0x000000000800c586                HAL_TIM_Encoder_GetState
                0x000000000800c58c                TIM_Base_SetConfig
                0x000000000800c658                HAL_TIM_Base_Init
                0x000000000800c68a                HAL_TIM_OC_Init
                0x000000000800c6bc                HAL_TIM_PWM_Init
                0x000000000800c6ee                HAL_TIM_IC_Init
                0x000000000800c720                HAL_TIM_OnePulse_Init
                0x000000000800c766                HAL_TIM_Encoder_Init
                0x000000000800c802                TIM_OC2_SetConfig
                0x000000000800c878                HAL_TIM_OC_ConfigChannel
                0x000000000800c8d6                HAL_TIM_PWM_ConfigChannel
                0x000000000800c9b2                TIM_TI1_SetConfig
                0x000000000800ca4c                HAL_TIM_IC_ConfigChannel
                0x000000000800cb0c                HAL_TIM_OnePulse_ConfigChannel
                0x000000000800cbfe                TIM_ETR_SetConfig
                0x000000000800cc16                HAL_TIM_ConfigOCrefClear
                0x000000000800ccfa                HAL_TIM_ConfigClockSource
                0x000000000800ce5e                HAL_TIM_SlaveConfigSynchro
                0x000000000800ceb6                HAL_TIM_SlaveConfigSynchro_IT
                0x000000000800cf0e                TIM_CCxChannelCmd
                0x000000000800cf30                HAL_TIM_OC_Start
                0x000000000800cf7c                HAL_TIM_OC_Stop
                0x000000000800cfe8                HAL_TIM_OC_Start_IT
                0x000000000800d078                HAL_TIM_OC_Stop_IT
                0x000000000800d128                HAL_TIM_OC_Start_DMA
                0x000000000800d290                HAL_TIM_OC_Stop_DMA
                0x000000000800d360                HAL_TIM_PWM_Start
                0x000000000800d3ac                HAL_TIM_PWM_Stop
                0x000000000800d41c                HAL_TIM_PWM_Start_IT
                0x000000000800d4ac                HAL_TIM_PWM_Stop_IT
                0x000000000800d55c                HAL_TIM_PWM_Start_DMA
                0x000000000800d6c4                HAL_TIM_PWM_Stop_DMA
                0x000000000800d794                HAL_TIM_IC_Start
                0x000000000800d7b8                HAL_TIM_IC_Stop
                0x000000000800d7e6                HAL_TIM_IC_Start_IT
                0x000000000800d84e                HAL_TIM_IC_Stop_IT
                0x000000000800d8c0                HAL_TIM_IC_Start_DMA
                0x000000000800d9f4                HAL_TIM_IC_Stop_DMA
                0x000000000800da88                HAL_TIM_OnePulse_Start
                0x000000000800dacc                HAL_TIM_OnePulse_Stop
                0x000000000800db44                HAL_TIM_OnePulse_Start_IT
                0x000000000800db9c                HAL_TIM_OnePulse_Stop_IT
                0x000000000800dc28                HAL_TIM_Encoder_Start
                0x000000000800dc6c                HAL_TIM_Encoder_Stop
                0x000000000800dcc4                HAL_TIM_Encoder_Start_IT
                0x000000000800dd30                HAL_TIM_Encoder_Stop_IT
                0x000000000800ddb6                HAL_TIM_Encoder_Start_DMA
                0x000000000800df18                HAL_TIM_Encoder_Stop_DMA
 .text          0x000000000800dfb8      0xc5c Drivers/STM32F4xx_HAL_Driver/Src/stm32f4xx_hal_tim_ex.o
                0x000000000800dfda                HAL_TIMEx_HallSensor_MspInit
                0x000000000800dfdc                HAL_TIMEx_HallSensor_Init
                0x000000000800e09a                HAL_TIMEx_HallSensor_MspDeInit
                0x000000000800e09c                HAL_TIMEx_HallSensor_DeInit
                0x000000000800e0d6                HAL_TIMEx_HallSensor_Start
                0x000000000800e0fc                HAL_TIMEx_HallSensor_Stop
                0x000000000800e12c                HAL_TIMEx_HallSensor_Start_IT
                0x000000000800e15c                HAL_TIMEx_HallSensor_Stop_IT
                0x000000000800e196                HAL_TIMEx_HallSensor_Start_DMA
                0x000000000800e228                HAL_TIMEx_HallSensor_Stop_DMA
                0x000000000800e268                HAL_TIMEx_OCN_Start
                0x000000000800e296                HAL_TIMEx_OCN_Stop
                0x000000000800e2e2                HAL_TIMEx_OCN_Start_IT
                0x000000000800e348                HAL_TIMEx_OCN_Stop_IT
                0x000000000800e3d8                HAL_TIMEx_OCN_Start_DMA
                0x000000000800e4e4                HAL_TIMEx_OCN_Stop_DMA
                0x000000000800e57a                HAL_TIMEx_PWMN_Start
                0x000000000800e5a8                HAL_TIMEx_PWMN_Stop
                0x000000000800e5f4                HAL_TIMEx_PWMN_Start_IT
                0x000000000800e65a                HAL_TIMEx_PWMN_Stop_IT
                0x000000000800e6ea                HAL_TIMEx_PWMN_Start_DMA
                0x000000000800e7f4                HAL_TIMEx_PWMN_Stop_DMA
                0x000000000800e88a                HAL_TIMEx_OnePulseN_Start
                0x000000000800e8a4                HAL_TIMEx_OnePulseN_Stop
                0x000000000800e8f0                HAL_TIMEx_OnePulseN_Start_IT
                0x000000000800e91e                HAL_TIMEx_OnePulseN_Stop_IT
                0x000000000800e97e                HAL_TIMEx_ConfigCommutEvent
                0x000000000800e9f0                HAL_TIMEx_ConfigCommutEvent_IT
                0x000000000800ea62                HAL_TIMEx_ConfigCommutEvent_DMA
                0x000000000800eaf4                HAL_TIMEx_MasterConfigSynchronization
                0x000000000800eb7c                HAL_TIMEx_ConfigBreakDeadTime
                0x000000000800ebce                HAL_TIMEx_RemapConfig
                0x000000000800ebe8                HAL_TIMEx_CommutCallback
                0x000000000800ebea                TIMEx_DMACommutationCplt
                0x000000000800ebfa                HAL_TIMEx_CommutHalfCpltCallback
                0x000000000800ebfc                TIMEx_DMACommutationHalfCplt
                0x000000000800ec0c                HAL_TIMEx_BreakCallback
                0x000000000800ec0e                HAL_TIMEx_HallSensor_GetState
 .text          0x000000000800ec14     0x11ec Drivers/STM32F4xx_HAL_Driver/Src/stm32f4xx_ll_usb.o
                0x000000000800ec50                USB_CoreInit
                0x000000000800ecda                USB_SetTurnaroundTime
                0x000000000800edc8                USB_EnableGlobalInt
                0x000000000800edd4                USB_DisableGlobalInt
                0x000000000800ede0                USB_SetCurrentMode
                0x000000000800ee10                USB_FlushTxFifo
                0x000000000800ee38                USB_FlushRxFifo
                0x000000000800ee5c                USB_SetDevSpeed
                0x000000000800ee6a                USB_DevInit
                0x000000000800f008                USB_GetDevSpeed
                0x000000000800f02a                USB_ActivateEndpoint
                0x000000000800f0be                USB_ActivateDedicatedEndpoint
                0x000000000800f158                USB_DeactivateEndpoint
                0x000000000800f1e8                USB_DeactivateDedicatedEndpoint
                0x000000000800f244                USB_EP0StartXfer
                0x000000000800f360                USB_WritePacket
                0x000000000800f388                USB_EPStartXfer
                0x000000000800f5a4                USB_ReadPacket
                0x000000000800f5cc                USB_EPSetStall
                0x000000000800f626                USB_EPClearStall
                0x000000000800f682                USB_StopDevice
                0x000000000800f6ca                USB_SetDevAddress
                0x000000000800f6ea                USB_DevConnect
                0x000000000800f702                USB_DevDisconnect
                0x000000000800f71a                USB_ReadInterrupts
                0x000000000800f722                USB_ReadDevAllOutEpInterrupt
                0x000000000800f732                USB_ReadDevAllInEpInterrupt
                0x000000000800f742                USB_ReadDevOutEPInterrupt
                0x000000000800f754                USB_ReadDevInEPInterrupt
                0x000000000800f77a                USB_ClearInterrupts
                0x000000000800f782                USB_GetMode
                0x000000000800f78a                USB_ActivateSetup
                0x000000000800f7c2                USB_EP0_OutStart
                0x000000000800f820                USB_InitFSLSPClkSel
                0x000000000800f860                USB_ResetPort
                0x000000000800f89e                USB_DriveVbus
                0x000000000800f8e4                USB_HostInit
                0x000000000800f9e0                USB_GetHostSpeed
                0x000000000800f9f6                USB_GetCurrentFrame
                0x000000000800fa00                USB_HC_Init
                0x000000000800fb04                USB_HC_ReadInterrupt
                0x000000000800fb0e                USB_HC_Halt
                0x000000000800fbde                USB_DoPing
                0x000000000800fc00                USB_HC_StartXfer
                0x000000000800fd58                USB_StopHost
                0x000000000800fdd6                USB_ActivateRemoteWakeup
                0x000000000800fdf0                USB_DeActivateRemoteWakeup
 .text          0x000000000800fe00      0x32c Middlewares/ST/STM32_USB_Device_Library/Class/CDC/Src/usbd_cdc.o
                0x000000000800fe4c                USBD_CDC_GetDeviceQualifierDescriptor
                0x000000000801009c                USBD_CDC_RegisterInterface
                0x00000000080100aa                USBD_CDC_SetTxBuffer
                0x00000000080100ba                USBD_CDC_SetRxBuffer
                0x00000000080100c6                USBD_CDC_TransmitPacket
                0x00000000080100fa                USBD_CDC_ReceivePacket
 .text          0x000000000801012c      0x322 Middlewares/ST/STM32_USB_Device_Library/Core/Src/usbd_core.o
                0x000000000801012c                USBD_Init
                0x000000000801015a                USBD_DeInit
                0x000000000801017e                USBD_RegisterClass
                0x000000000801018c                USBD_Start
                0x0000000008010196                USBD_Stop
                0x00000000080101ae                USBD_RunTestMode
                0x00000000080101b2                USBD_SetClassConfig
                0x00000000080101cc                USBD_ClrClassConfig
                0x00000000080101da                USBD_LL_SetupStage
                0x0000000008010234                USBD_LL_DataOutStage
                0x00000000080102c8                USBD_LL_DataInStage
                0x000000000801039c                USBD_LL_Reset
                0x00000000080103ec                USBD_LL_SetSpeed
                0x00000000080103f2                USBD_LL_Suspend
                0x0000000008010404                USBD_LL_Resume
                0x0000000008010410                USBD_LL_SOF
                0x000000000801042c                USBD_LL_IsoINIncomplete
                0x0000000008010430                USBD_LL_IsoOUTIncomplete
                0x0000000008010434                USBD_LL_DevConnected
                0x0000000008010438                USBD_LL_DevDisconnected
 *fill*         0x000000000801044e        0x2 
 .text          0x0000000008010450      0x644 Middlewares/ST/STM32_USB_Device_Library/Core/Src/usbd_ctlreq.o
                0x0000000008010478                USBD_ParseSetupRequest
                0x00000000080104a0                USBD_CtlError
                0x000000000801078a                USBD_StdDevReq
                0x00000000080107f2                USBD_StdItfReq
                0x0000000008010852                USBD_StdEPReq
                0x0000000008010a5c                USBD_GetString
 .text          0x0000000008010a94       0x8c Middlewares/ST/STM32_USB_Device_Library/Core/Src/usbd_ioreq.o
                0x0000000008010a94                USBD_CtlSendData
                0x0000000008010aae                USBD_CtlContinueSendData
                0x0000000008010abe                USBD_CtlPrepareRx
                0x0000000008010adc                USBD_CtlContinueRx
                0x0000000008010aec                USBD_CtlSendStatus
                0x0000000008010b02                USBD_CtlReceiveStatus
                0x0000000008010b18                USBD_GetRxCount
 .text          0x0000000008010b20     0x16ec Middlewares/Third_Party/FreeRTOS/Source/CMSIS_RTOS_V2/cmsis_os2.o
                0x0000000008010b30                osKernelInitialize
                0x0000000008010b74                osKernelGetInfo
                0x0000000008010ba0                osKernelGetState
                0x0000000008010bc8                osKernelStart
                0x0000000008010c14                osKernelLock
                0x0000000008010c64                osKernelUnlock
                0x0000000008010cc8                osKernelRestoreLock
                0x0000000008010d3c                osKernelGetTickCount
                0x0000000008010d6c                osKernelGetTickFreq
                0x0000000008010d72                osKernelGetSysTimerCount
                0x0000000008010da8                osKernelGetSysTimerFreq
                0x0000000008010db4                osThreadNew
                0x0000000008010ea0                osThreadGetName
                0x0000000008010edc                osThreadGetId
                0x0000000008010f10                osThreadGetState
                0x0000000008010f74                osThreadGetStackSpace
                0x0000000008010fb0                osThreadGetStackSize
                0x0000000008010fb4                osThreadSetPriority
                0x000000000801100c                osThreadGetPriority
                0x0000000008011050                osThreadYield
                0x000000000801109c                osThreadSuspend
                0x00000000080110e0                osThreadResume
                0x0000000008011124                osThreadExit
                0x000000000801112e                osThreadTerminate
                0x0000000008011184                osThreadGetCount
                0x00000000080111b4                osThreadEnumerate
                0x000000000801123c                osThreadFlagsSet
                0x00000000080112d0                osThreadFlagsClear
                0x000000000801134c                osThreadFlagsGet
                0x0000000008011398                osThreadFlagsWait
                0x0000000008011464                osDelay
                0x00000000080114a8                osDelayUntil
                0x00000000080114f8                osTimerNew
                0x00000000080115b0                osTimerGetName
                0x00000000080115ec                osTimerStart
                0x0000000008011648                osTimerStop
                0x00000000080116b4                osTimerIsRunning
                0x00000000080116f0                osTimerDelete
                0x000000000801175c                osEventFlagsNew
                0x00000000080117cc                osEventFlagsSet
                0x0000000008011848                osEventFlagsClear
                0x00000000080118ac                osEventFlagsGet
                0x00000000080118e4                osEventFlagsWait
                0x0000000008011980                osEventFlagsDelete
                0x00000000080119c4                osMutexNew
                0x0000000008011a8c                osMutexAcquire
                0x0000000008011b0c                osMutexRelease
                0x0000000008011b80                osMutexGetOwner
                0x0000000008011bc0                osMutexDelete
                0x0000000008011c10                osSemaphoreNew
                0x0000000008011d00                osSemaphoreAcquire
                0x0000000008011d8c                osSemaphoreRelease
                0x0000000008011e0c                osSemaphoreGetCount
                0x0000000008011e40                osSemaphoreDelete
                0x0000000008011e8c                osMessageQueueNew
                0x0000000008011f54                osMessageQueuePut
                0x0000000008011ff8                osMessageQueueGet
                0x000000000801209c                osMessageQueueGetCapacity
                0x00000000080120a6                osMessageQueueGetMsgSize
                0x00000000080120b0                osMessageQueueGetCount
                0x00000000080120e4                osMessageQueueGetSpace
                0x0000000008012138                osMessageQueueReset
                0x0000000008012180                osMessageQueueDelete
                0x00000000080121ce                vApplicationGetIdleTaskMemory
                0x00000000080121ec                vApplicationGetTimerTaskMemory
 .text          0x000000000801220c        0x0 Middlewares/Third_Party/FreeRTOS/Source/croutine.o
 .text          0x000000000801220c      0x404 Middlewares/Third_Party/FreeRTOS/Source/event_groups.o
                0x0000000008012228                xEventGroupCreateStatic
                0x0000000008012272                xEventGroupCreate
                0x000000000801228e                xEventGroupWaitBits
                0x00000000080123a4                xEventGroupClearBits
                0x00000000080123ea                vEventGroupClearBitsCallback
                0x00000000080123f2                xEventGroupClearBitsFromISR
                0x0000000008012408                xEventGroupGetBitsFromISR
                0x0000000008012424                xEventGroupSetBits
                0x00000000080124c2                xEventGroupSync
                0x00000000080125a0                vEventGroupSetBitsCallback
                0x00000000080125a8                vEventGroupDelete
                0x00000000080125ec                xEventGroupSetBitsFromISR
                0x0000000008012600                uxEventGroupGetNumber
                0x000000000801260a                vEventGroupSetNumber
 .text          0x0000000008012610       0x90 Middlewares/Third_Party/FreeRTOS/Source/list.o
                0x0000000008012610                vListInitialise
                0x0000000008012626                vListInitialiseItem
                0x000000000801262c                vListInsertEnd
                0x0000000008012644                vListInsert
                0x0000000008012678                uxListRemove
 .text          0x00000000080126a0      0x390 Middlewares/Third_Party/FreeRTOS/Source/portable/GCC/ARM_CM4F/port.o
                0x0000000008012710                pxPortInitialiseStack
                0x000000000801273c                SVC_Handler
                0x0000000008012764                vPortEndScheduler
                0x0000000008012788                vPortEnterCritical
                0x00000000080127cc                vPortExitCritical
                0x00000000080127f8                PendSV_Handler
                0x0000000008012864                SysTick_Handler
                0x0000000008012890                vPortSetupTimerInterrupt
                0x00000000080128c8                xPortStartScheduler
                0x00000000080129d0                vPortValidateInterruptPriority
 .text          0x0000000008012a30      0x248 Middlewares/Third_Party/FreeRTOS/Source/portable/MemMang/heap_4.o
                0x0000000008012ae0                pvPortMalloc
                0x0000000008012bec                vPortFree
                0x0000000008012c5c                xPortGetFreeHeapSize
                0x0000000008012c68                xPortGetMinimumEverFreeHeapSize
                0x0000000008012c74                vPortInitialiseBlocks
 .text          0x0000000008012c78      0xee8 Middlewares/Third_Party/FreeRTOS/Source/queue.o
                0x0000000008012dca                xQueueGenericReset
                0x0000000008012e6e                xQueueGenericCreateStatic
                0x0000000008012f0e                xQueueGenericCreate
                0x0000000008012f5c                xQueueGetMutexHolder
                0x0000000008012f76                xQueueGetMutexHolderFromISR
                0x0000000008012f96                xQueueCreateCountingSemaphoreStatic
                0x0000000008012fe0                xQueueCreateCountingSemaphore
                0x0000000008013020                xQueueGenericSend
                0x00000000080131c0                xQueueCreateMutex
                0x00000000080131d6                xQueueCreateMutexStatic
                0x00000000080131f4                xQueueGiveMutexRecursive
                0x0000000008013234                xQueueGenericSendFromISR
                0x0000000008013312                xQueueGiveFromISR
                0x00000000080133ce                xQueueReceive
                0x000000000801352c                xQueueSemaphoreTake
                0x00000000080136d0                xQueueTakeMutexRecursive
                0x0000000008013714                xQueuePeek
                0x0000000008013870                xQueueReceiveFromISR
                0x0000000008013926                xQueuePeekFromISR
                0x00000000080139ae                uxQueueMessagesWaiting
                0x00000000080139d4                uxQueueSpacesAvailable
                0x00000000080139fe                uxQueueMessagesWaitingFromISR
                0x0000000008013a16                uxQueueGetQueueNumber
                0x0000000008013a1a                vQueueSetQueueNumber
                0x0000000008013a1e                ucQueueGetQueueType
                0x0000000008013a24                xQueueIsQueueEmptyFromISR
                0x0000000008013a44                xQueueIsQueueFullFromISR
                0x0000000008013a68                vQueueAddToRegistry
                0x0000000008013a90                pcQueueGetName
                0x0000000008013ab8                vQueueUnregisterQueue
                0x0000000008013ae4                vQueueDelete
                0x0000000008013b0e                vQueueWaitForMessageRestricted
 .text          0x0000000008013b60      0x826 Middlewares/Third_Party/FreeRTOS/Source/stream_buffer.o
                0x0000000008013d70                xStreamBufferGenericCreate
                0x0000000008013dc8                xStreamBufferGenericCreateStatic
                0x0000000008013e60                vStreamBufferDelete
                0x0000000008013e8e                xStreamBufferReset
                0x0000000008013ede                xStreamBufferSetTriggerLevel
                0x0000000008013f08                xStreamBufferSpacesAvailable
                0x0000000008013f32                xStreamBufferBytesAvailable
                0x0000000008013f4e                xStreamBufferSend
                0x0000000008014054                xStreamBufferSendFromISR
                0x00000000080140f6                xStreamBufferReceive
                0x00000000080141da                xStreamBufferReceiveFromISR
                0x0000000008014276                xStreamBufferIsEmpty
                0x000000000801429a                xStreamBufferIsFull
                0x00000000080142d2                xStreamBufferSendCompletedFromISR
                0x0000000008014324                xStreamBufferReceiveCompletedFromISR
                0x0000000008014376                uxStreamBufferGetStreamBufferNumber
                0x000000000801437a                vStreamBufferSetStreamBufferNumber
                0x000000000801437e                ucStreamBufferGetStreamBufferType
 *fill*         0x0000000008014386        0x2 
 .text          0x0000000008014388     0x1a10 Middlewares/Third_Party/FreeRTOS/Source/tasks.o
                0x00000000080146e6                xTaskCreateStatic
                0x0000000008014758                xTaskCreate
                0x00000000080147be                vTaskDelete
                0x0000000008014874                eTaskGetState
                0x00000000080148ec                uxTaskPriorityGet
                0x000000000801490c                uxTaskPriorityGetFromISR
                0x0000000008014940                vTaskPrioritySet
                0x0000000008014a20                vTaskResume
                0x0000000008014aa8                xTaskResumeFromISR
                0x0000000008014b50                vTaskStartScheduler
                0x0000000008014be8                vTaskEndScheduler
                0x0000000008014c0c                vTaskSuspendAll
                0x0000000008014c20                xTaskGetTickCount
                0x0000000008014c2c                xTaskGetTickCountFromISR
                0x0000000008014c40                uxTaskGetNumberOfTasks
                0x0000000008014c4c                pcTaskGetName
                0x0000000008014c74                xTaskIncrementTick
                0x0000000008014d88                xTaskResumeAll
                0x0000000008014e7c                vTaskDelayUntil
                0x0000000008014f28                vTaskDelay
                0x0000000008014f78                vTaskSwitchContext
                0x0000000008015044                vTaskSuspend
                0x0000000008015104                vTaskPlaceOnEventList
                0x0000000008015138                vTaskPlaceOnUnorderedEventList
                0x0000000008015194                vTaskPlaceOnEventListRestricted
                0x00000000080151d0                xTaskRemoveFromEventList
                0x0000000008015258                vTaskRemoveFromUnorderedEventList
                0x00000000080152dc                vTaskSetTimeOutState
                0x0000000008015310                vTaskInternalSetTimeOutState
                0x0000000008015324                xTaskCheckForTimeOut
                0x00000000080153a4                vTaskMissedYield
                0x00000000080153b4                uxTaskGetTaskNumber
                0x00000000080153be                vTaskSetTaskNumber
                0x00000000080153c4                vTaskGetInfo
                0x00000000080154a0                uxTaskGetSystemState
                0x000000000801554c                uxTaskGetStackHighWaterMark
                0x0000000008015568                xTaskGetCurrentTaskHandle
                0x0000000008015574                xTaskGetSchedulerState
                0x0000000008015594                xTaskPriorityInherit
                0x000000000801563c                xTaskPriorityDisinherit
                0x00000000080156d0                vTaskPriorityDisinheritAfterTimeout
                0x000000000801577c                vTaskList
                0x0000000008015860                vTaskGetRunTimeStats
                0x0000000008015928                uxTaskResetEventItemValue
                0x0000000008015948                pvTaskIncrementMutexHeldCount
                0x0000000008015968                ulTaskNotifyTake
                0x00000000080159ec                xTaskNotifyWait
                0x0000000008015a94                xTaskGenericNotify
                0x0000000008015b78                xTaskGenericNotifyFromISR
                0x0000000008015c98                vTaskNotifyGiveFromISR
                0x0000000008015d64                xTaskNotifyStateClear
 .text          0x0000000008015d98      0x648 Middlewares/Third_Party/FreeRTOS/Source/timers.o
                0x0000000008015e98                xTimerCreateTimerTask
                0x0000000008015f04                xTimerCreate
                0x0000000008015f3c                xTimerCreateStatic
                0x0000000008015f88                xTimerGenericCommand
                0x000000000801628e                xTimerGetTimerDaemonTaskHandle
                0x00000000080162b0                xTimerGetPeriod
                0x00000000080162c8                xTimerGetExpiryTime
                0x00000000080162e0                pcTimerGetName
                0x00000000080162f8                xTimerIsTimerActive
                0x0000000008016324                pvTimerGetTimerID
                0x000000000801634a                vTimerSetTimerID
                0x0000000008016370                xTimerPendFunctionCallFromISR
                0x0000000008016398                xTimerPendFunctionCall
                0x00000000080163d8                uxTimerGetTimerNumber
                0x00000000080163dc                vTimerSetTimerNumber
 .text          0x00000000080163e0       0x58 Source/Tasks/analog.o
                0x00000000080163e0                analogTask
 .text          0x0000000008016438      0x390 Source/Tasks/communication.o
                0x0000000008016438                packetReset
                0x0000000008016460                envelope_CDC_Transmit
                0x0000000008016500                communicationTask
 .text          0x00000000080167c8       0x14 Source/Timers/envelope.o
                0x00000000080167c8                envelopeTimeout
 .text          0x00000000080167dc       0x6c Source/Timers/heartbeat.o
                0x00000000080167dc                heartBeat
 .text          0x0000000008016848      0x768 Source/bmp280.o
                0x0000000008016a5e                bmp280_init_default_params
                0x0000000008016a70                bmp280_init
                0x0000000008016b9a                bmp280_force_measurement
                0x0000000008016bf0                bmp280_is_measuring
                0x0000000008016c36                bmp280_read_fixed
                0x0000000008016f40                bmp280_read_float
 .text          0x0000000008016fb0        0x0 Source/config.o
 .text          0x0000000008016fb0       0x2c Source/crc32.o
                0x0000000008016fb0                crc32
 .text          0x0000000008016fdc       0x48 Source/debug.o
                0x0000000008016fdc                _write
 .text          0x0000000008017024      0x1f4 Source/hub.o
                0x0000000008017024                hubTimeout
                0x000000000801705c                hubWatchDog
                0x0000000008017098                hubUpdate
                0x00000000080170ec                TIM1_UP_TIM10_IRQHandler
                0x0000000008017108                TIM1_CC_IRQHandler
 .text          0x0000000008017218      0x358 Source/hx711.o
                0x0000000008017218                TIM8_CC_IRQHandler
                0x0000000008017318                EXTI9_5_IRQHandler
                0x000000000801736c                HX711_Init
                0x000000000801739a                HX711_Value
                0x00000000080174f2                HX711_Average_Value
                0x000000000801752e                HX711_Tare
 .text          0x0000000008017570      0x374 Source/stepper.o
                0x0000000008017570                stepperHome
                0x0000000008017584                stepperAbs
                0x0000000008017586                stepperRel
                0x0000000008017754                stepperDelay
                0x0000000008017898                TIM5_IRQHandler
 .text          0x00000000080178e4       0x54 USB_DEVICE/App/usb_device.o
                0x00000000080178e4                MX_USB_DEVICE_Init
 .text          0x0000000008017938       0xe4 USB_DEVICE/App/usbd_cdc_if.o
                0x00000000080179c0                CDC_Transmit_FS
                0x00000000080179ec                packetReceive
                0x0000000008017a08                CDC_Transmit_Busy
 .text          0x0000000008017a1c      0x120 USB_DEVICE/App/usbd_desc.o
                0x0000000008017a1c                USBD_FS_DeviceDescriptor
                0x0000000008017a28                USBD_FS_LangIDStrDescriptor
                0x0000000008017aa0                USBD_FS_SerialStrDescriptor
                0x0000000008017ab4                USBD_FS_ProductStrDescriptor
                0x0000000008017ad8                USBD_FS_ManufacturerStrDescriptor
                0x0000000008017af4                USBD_FS_ConfigStrDescriptor
                0x0000000008017b18                USBD_FS_InterfaceStrDescriptor
 .text          0x0000000008017b3c      0x308 USB_DEVICE/Target/usbd_conf.o
                0x0000000008017b3c                HAL_PCD_MspInit
                0x0000000008017bc0                HAL_PCD_MspDeInit
                0x0000000008017bf0                HAL_PCD_SetupStageCallback
                0x0000000008017c00                HAL_PCD_DataOutStageCallback
                0x0000000008017c18                HAL_PCD_DataInStageCallback
                0x0000000008017c2e                HAL_PCD_SOFCallback
                0x0000000008017c3a                HAL_PCD_ResetCallback
                0x0000000008017c66                HAL_PCD_SuspendCallback
                0x0000000008017c94                HAL_PCD_ResumeCallback
                0x0000000008017ca0                HAL_PCD_ISOOUTIncompleteCallback
                0x0000000008017cac                HAL_PCD_ISOINIncompleteCallback
                0x0000000008017cb8                HAL_PCD_ConnectCallback
                0x0000000008017cc4                HAL_PCD_DisconnectCallback
                0x0000000008017cd0                USBD_LL_Init
                0x0000000008017d38                USBD_LL_IsStallEP
                0x0000000008017d66                USBD_LL_GetRxDataSize
                0x0000000008017d72                USBD_LL_Delay
                0x0000000008017d7a                USBD_Get_USB_Status
                0x0000000008017d8c                USBD_LL_DeInit
                0x0000000008017d9c                USBD_LL_Start
                0x0000000008017dac                USBD_LL_Stop
                0x0000000008017dbc                USBD_LL_OpenEP
                0x0000000008017dd2                USBD_LL_CloseEP
                0x0000000008017de2                USBD_LL_FlushEP
                0x0000000008017df2                USBD_LL_StallEP
                0x0000000008017e02                USBD_LL_ClearStallEP
                0x0000000008017e12                USBD_LL_SetUSBAddress
                0x0000000008017e22                USBD_LL_Transmit
                0x0000000008017e32                USBD_LL_PrepareReceive
 .text          0x0000000008017e44       0x14 startup/startup_stm32f407xx.o
 .text          0x0000000008017e58        0x0 /opt/Atollic_TrueSTUDIO_for_STM32_x86_64_9.3.0/ARMTools/bin/../lib/gcc/arm-atollic-eabi/6.3.1/../../../../arm-atollic-eabi/lib/armv7e-m/fpu/libc.a(lib_a-errno.o)
 .text          0x0000000008017e58        0x0 /opt/Atollic_TrueSTUDIO_for_STM32_x86_64_9.3.0/ARMTools/bin/../lib/gcc/arm-atollic-eabi/6.3.1/../../../../arm-atollic-eabi/lib/armv7e-m/fpu/libc.a(lib_a-impure.o)
 .text          0x0000000008017e58        0x0 /opt/Atollic_TrueSTUDIO_for_STM32_x86_64_9.3.0/ARMTools/bin/../lib/gcc/arm-atollic-eabi/6.3.1/../../../../arm-atollic-eabi/lib/armv7e-m/fpu/libc.a(lib_a-init.o)
 .text          0x0000000008017e58        0x0 /opt/Atollic_TrueSTUDIO_for_STM32_x86_64_9.3.0/ARMTools/bin/../lib/gcc/arm-atollic-eabi/6.3.1/../../../../arm-atollic-eabi/lib/armv7e-m/fpu/libc.a(lib_a-malloc.o)
 .text          0x0000000008017e58        0x0 /opt/Atollic_TrueSTUDIO_for_STM32_x86_64_9.3.0/ARMTools/bin/../lib/gcc/arm-atollic-eabi/6.3.1/../../../../arm-atollic-eabi/lib/armv7e-m/fpu/libc.a(lib_a-mallocr.o)
 .text          0x0000000008017e58        0x0 /opt/Atollic_TrueSTUDIO_for_STM32_x86_64_9.3.0/ARMTools/bin/../lib/gcc/arm-atollic-eabi/6.3.1/../../../../arm-atollic-eabi/lib/armv7e-m/fpu/libc.a(lib_a-memcpy-stub.o)
 .text          0x0000000008017e58        0x0 /opt/Atollic_TrueSTUDIO_for_STM32_x86_64_9.3.0/ARMTools/bin/../lib/gcc/arm-atollic-eabi/6.3.1/../../../../arm-atollic-eabi/lib/armv7e-m/fpu/libc.a(lib_a-memset.o)
 .text          0x0000000008017e58        0x0 /opt/Atollic_TrueSTUDIO_for_STM32_x86_64_9.3.0/ARMTools/bin/../lib/gcc/arm-atollic-eabi/6.3.1/../../../../arm-atollic-eabi/lib/armv7e-m/fpu/libc.a(lib_a-mlock.o)
 .text          0x0000000008017e58        0x0 /opt/Atollic_TrueSTUDIO_for_STM32_x86_64_9.3.0/ARMTools/bin/../lib/gcc/arm-atollic-eabi/6.3.1/../../../../arm-atollic-eabi/lib/armv7e-m/fpu/libc.a(lib_a-sbrkr.o)
 .text          0x0000000008017e58        0x0 /opt/Atollic_TrueSTUDIO_for_STM32_x86_64_9.3.0/ARMTools/bin/../lib/gcc/arm-atollic-eabi/6.3.1/../../../../arm-atollic-eabi/lib/armv7e-m/fpu/libc.a(lib_a-sprintf.o)
 .text          0x0000000008017e58        0x0 /opt/Atollic_TrueSTUDIO_for_STM32_x86_64_9.3.0/ARMTools/bin/../lib/gcc/arm-atollic-eabi/6.3.1/../../../../arm-atollic-eabi/lib/armv7e-m/fpu/libc.a(lib_a-strcpy.o)
 .text          0x0000000008017e58       0x10 /opt/Atollic_TrueSTUDIO_for_STM32_x86_64_9.3.0/ARMTools/bin/../lib/gcc/arm-atollic-eabi/6.3.1/../../../../arm-atollic-eabi/lib/armv7e-m/fpu/libc.a(lib_a-strlen.o)
                0x0000000008017e58                strlen
 .text          0x0000000008017e68        0x0 /opt/Atollic_TrueSTUDIO_for_STM32_x86_64_9.3.0/ARMTools/bin/../lib/gcc/arm-atollic-eabi/6.3.1/../../../../arm-atollic-eabi/lib/armv7e-m/fpu/libc.a(lib_a-svfprintf.o)
 .text          0x0000000008017e68        0x0 /opt/Atollic_TrueSTUDIO_for_STM32_x86_64_9.3.0/ARMTools/bin/../lib/gcc/arm-atollic-eabi/6.3.1/../../../../arm-atollic-eabi/lib/armv7e-m/fpu/libc.a(lib_a-dtoa.o)
 .text          0x0000000008017e68        0x0 /opt/Atollic_TrueSTUDIO_for_STM32_x86_64_9.3.0/ARMTools/bin/../lib/gcc/arm-atollic-eabi/6.3.1/../../../../arm-atollic-eabi/lib/armv7e-m/fpu/libc.a(lib_a-freer.o)
 .text          0x0000000008017e68        0x0 /opt/Atollic_TrueSTUDIO_for_STM32_x86_64_9.3.0/ARMTools/bin/../lib/gcc/arm-atollic-eabi/6.3.1/../../../../arm-atollic-eabi/lib/armv7e-m/fpu/libc.a(lib_a-localeconv.o)
 .text          0x0000000008017e68        0x0 /opt/Atollic_TrueSTUDIO_for_STM32_x86_64_9.3.0/ARMTools/bin/../lib/gcc/arm-atollic-eabi/6.3.1/../../../../arm-atollic-eabi/lib/armv7e-m/fpu/libc.a(lib_a-lock.o)
 *fill*         0x0000000008017e68        0x8 
 .text          0x0000000008017e70       0xa0 /opt/Atollic_TrueSTUDIO_for_STM32_x86_64_9.3.0/ARMTools/bin/../lib/gcc/arm-atollic-eabi/6.3.1/../../../../arm-atollic-eabi/lib/armv7e-m/fpu/libc.a(lib_a-memchr.o)
                0x0000000008017e70                memchr
 .text          0x0000000008017f10        0x0 /opt/Atollic_TrueSTUDIO_for_STM32_x86_64_9.3.0/ARMTools/bin/../lib/gcc/arm-atollic-eabi/6.3.1/../../../../arm-atollic-eabi/lib/armv7e-m/fpu/libc.a(lib_a-mprec.o)
 .text          0x0000000008017f10        0x0 /opt/Atollic_TrueSTUDIO_for_STM32_x86_64_9.3.0/ARMTools/bin/../lib/gcc/arm-atollic-eabi/6.3.1/../../../../arm-atollic-eabi/lib/armv7e-m/fpu/libc.a(lib_a-reent.o)
 .text          0x0000000008017f10        0x0 /opt/Atollic_TrueSTUDIO_for_STM32_x86_64_9.3.0/ARMTools/bin/../lib/gcc/arm-atollic-eabi/6.3.1/../../../../arm-atollic-eabi/lib/armv7e-m/fpu/libc.a(lib_a-svfiprintf.o)
 .text          0x0000000008017f10        0x0 /opt/Atollic_TrueSTUDIO_for_STM32_x86_64_9.3.0/ARMTools/bin/../lib/gcc/arm-atollic-eabi/6.3.1/../../../../arm-atollic-eabi/lib/armv7e-m/fpu/libc.a(lib_a-callocr.o)
 .text          0x0000000008017f10        0x0 /opt/Atollic_TrueSTUDIO_for_STM32_x86_64_9.3.0/ARMTools/bin/../lib/gcc/arm-atollic-eabi/6.3.1/../../../../arm-atollic-eabi/lib/armv7e-m/fpu/libc.a(lib_a-locale.o)
 .text          0x0000000008017f10        0x0 /opt/Atollic_TrueSTUDIO_for_STM32_x86_64_9.3.0/ARMTools/bin/../lib/gcc/arm-atollic-eabi/6.3.1/../../../../arm-atollic-eabi/lib/armv7e-m/fpu/libc.a(lib_a-mbtowc_r.o)
 .text          0x0000000008017f10        0x0 /opt/Atollic_TrueSTUDIO_for_STM32_x86_64_9.3.0/ARMTools/bin/../lib/gcc/arm-atollic-eabi/6.3.1/../../../../arm-atollic-eabi/lib/armv7e-m/fpu/libc.a(lib_a-memmove.o)
 .text          0x0000000008017f10        0x0 /opt/Atollic_TrueSTUDIO_for_STM32_x86_64_9.3.0/ARMTools/bin/../lib/gcc/arm-atollic-eabi/6.3.1/../../../../arm-atollic-eabi/lib/armv7e-m/fpu/libc.a(lib_a-reallocr.o)
 .text          0x0000000008017f10       0x14 /opt/Atollic_TrueSTUDIO_for_STM32_x86_64_9.3.0/ARMTools/bin/../lib/gcc/arm-atollic-eabi/6.3.1/../../../../arm-atollic-eabi/lib/armv7e-m/fpu/libc.a(lib_a-strcmp.o)
                0x0000000008017f10                strcmp
 .text          0x0000000008017f24        0x0 /opt/Atollic_TrueSTUDIO_for_STM32_x86_64_9.3.0/ARMTools/bin/../lib/gcc/arm-atollic-eabi/6.3.1/../../../../arm-atollic-eabi/lib/armv7e-m/fpu/libc.a(lib_a-wctomb_r.o)
 .text          0x0000000008017f24        0x0 /opt/Atollic_TrueSTUDIO_for_STM32_x86_64_9.3.0/ARMTools/bin/../lib/gcc/arm-atollic-eabi/6.3.1/../../../../arm-atollic-eabi/lib/armv7e-m/fpu/libc.a(lib_a-ctype_.o)
 .text          0x0000000008017f24        0x0 /opt/Atollic_TrueSTUDIO_for_STM32_x86_64_9.3.0/ARMTools/bin/../lib/gcc/arm-atollic-eabi/6.3.1/../../../../arm-atollic-eabi/lib/armv7e-m/fpu/libm.a(lib_a-w_sqrt.o)
 .text          0x0000000008017f24        0x0 /opt/Atollic_TrueSTUDIO_for_STM32_x86_64_9.3.0/ARMTools/bin/../lib/gcc/arm-atollic-eabi/6.3.1/../../../../arm-atollic-eabi/lib/armv7e-m/fpu/libm.a(lib_a-e_sqrt.o)
 .text          0x0000000008017f24        0x0 /opt/Atollic_TrueSTUDIO_for_STM32_x86_64_9.3.0/ARMTools/bin/../lib/gcc/arm-atollic-eabi/6.3.1/../../../../arm-atollic-eabi/lib/armv7e-m/fpu/libm.a(lib_a-s_lib_ver.o)
 .text          0x0000000008017f24        0x0 /opt/Atollic_TrueSTUDIO_for_STM32_x86_64_9.3.0/ARMTools/bin/../lib/gcc/arm-atollic-eabi/6.3.1/../../../../arm-atollic-eabi/lib/armv7e-m/fpu/libm.a(lib_a-s_matherr.o)
 .text          0x0000000008017f24      0x370 /opt/Atollic_TrueSTUDIO_for_STM32_x86_64_9.3.0/ARMTools/bin/../lib/gcc/arm-atollic-eabi/6.3.1/armv7e-m/fpu/libgcc.a(_arm_addsubdf3.o)
                0x0000000008017f24                __aeabi_drsub
                0x0000000008017f2c                __aeabi_dsub
                0x0000000008017f2c                __subdf3
                0x0000000008017f30                __adddf3
                0x0000000008017f30                __aeabi_dadd
                0x00000000080181a8                __aeabi_ui2d
                0x00000000080181a8                __floatunsidf
                0x00000000080181c8                __floatsidf
                0x00000000080181c8                __aeabi_i2d
                0x00000000080181ec                __extendsfdf2
                0x00000000080181ec                __aeabi_f2d
                0x0000000008018228                __aeabi_ul2d
                0x0000000008018228                __floatundidf
                0x0000000008018238                __floatdidf
                0x0000000008018238                __aeabi_l2d
 .text          0x0000000008018294      0x424 /opt/Atollic_TrueSTUDIO_for_STM32_x86_64_9.3.0/ARMTools/bin/../lib/gcc/arm-atollic-eabi/6.3.1/armv7e-m/fpu/libgcc.a(_arm_muldivdf3.o)
                0x0000000008018294                __aeabi_dmul
                0x0000000008018294                __muldf3
                0x00000000080184e8                __aeabi_ddiv
                0x00000000080184e8                __divdf3
 .text          0x00000000080186b8      0x110 /opt/Atollic_TrueSTUDIO_for_STM32_x86_64_9.3.0/ARMTools/bin/../lib/gcc/arm-atollic-eabi/6.3.1/armv7e-m/fpu/libgcc.a(_arm_cmpdf2.o)
                0x00000000080186b8                __gtdf2
                0x00000000080186b8                __gedf2
                0x00000000080186c0                __ltdf2
                0x00000000080186c0                __ledf2
                0x00000000080186c8                __cmpdf2
                0x00000000080186c8                __eqdf2
                0x00000000080186c8                __nedf2
                0x0000000008018744                __aeabi_cdrcmple
                0x0000000008018754                __aeabi_cdcmple
                0x0000000008018754                __aeabi_cdcmpeq
                0x0000000008018764                __aeabi_dcmpeq
                0x0000000008018778                __aeabi_dcmplt
                0x000000000801878c                __aeabi_dcmple
                0x00000000080187a0                __aeabi_dcmpge
                0x00000000080187b4                __aeabi_dcmpgt
 .text          0x00000000080187c8       0x2c /opt/Atollic_TrueSTUDIO_for_STM32_x86_64_9.3.0/ARMTools/bin/../lib/gcc/arm-atollic-eabi/6.3.1/armv7e-m/fpu/libgcc.a(_arm_unorddf2.o)
                0x00000000080187c8                __aeabi_dcmpun
                0x00000000080187c8                __unorddf2
 .text          0x00000000080187f4       0x50 /opt/Atollic_TrueSTUDIO_for_STM32_x86_64_9.3.0/ARMTools/bin/../lib/gcc/arm-atollic-eabi/6.3.1/armv7e-m/fpu/libgcc.a(_arm_fixdfsi.o)
                0x00000000080187f4                __fixdfsi
                0x00000000080187f4                __aeabi_d2iz
 .text          0x0000000008018844       0xa0 /opt/Atollic_TrueSTUDIO_for_STM32_x86_64_9.3.0/ARMTools/bin/../lib/gcc/arm-atollic-eabi/6.3.1/armv7e-m/fpu/libgcc.a(_aeabi_ldivmod.o)
                0x0000000008018844                __aeabi_ldivmod
 .text          0x00000000080188e4       0x30 /opt/Atollic_TrueSTUDIO_for_STM32_x86_64_9.3.0/ARMTools/bin/../lib/gcc/arm-atollic-eabi/6.3.1/armv7e-m/fpu/libgcc.a(_aeabi_uldivmod.o)
                0x00000000080188e4                __aeabi_uldivmod
 .text          0x0000000008018914      0x2dc /opt/Atollic_TrueSTUDIO_for_STM32_x86_64_9.3.0/ARMTools/bin/../lib/gcc/arm-atollic-eabi/6.3.1/armv7e-m/fpu/libgcc.a(_udivmoddi4.o)
                0x0000000008018914                __udivmoddi4
 .text          0x0000000008018bf0        0x4 /opt/Atollic_TrueSTUDIO_for_STM32_x86_64_9.3.0/ARMTools/bin/../lib/gcc/arm-atollic-eabi/6.3.1/armv7e-m/fpu/libgcc.a(_dvmd_tls.o)
                0x0000000008018bf0                __aeabi_ldiv0
                0x0000000008018bf0                __aeabi_idiv0
 .text          0x0000000008018bf4        0x0 /opt/Atollic_TrueSTUDIO_for_STM32_x86_64_9.3.0/ARMTools/bin/../lib/gcc/arm-atollic-eabi/6.3.1/armv7e-m/fpu/crtend.o
 .text          0x0000000008018bf4        0x0 /opt/Atollic_TrueSTUDIO_for_STM32_x86_64_9.3.0/ARMTools/bin/../lib/gcc/arm-atollic-eabi/6.3.1/armv7e-m/fpu/crtn.o
 *(.text*)
 .text.Reset_Handler
                0x0000000008018bf4       0x50 startup/startup_stm32f407xx.o
                0x0000000008018bf4                Reset_Handler
 .text.Default_Handler
                0x0000000008018c44        0x2 startup/startup_stm32f407xx.o
                0x0000000008018c44                RTC_Alarm_IRQHandler
                0x0000000008018c44                HASH_RNG_IRQHandler
                0x0000000008018c44                EXTI2_IRQHandler
                0x0000000008018c44                DMA2_Stream5_IRQHandler
                0x0000000008018c44                DMA1_Stream5_IRQHandler
                0x0000000008018c44                PVD_IRQHandler
                0x0000000008018c44                SDIO_IRQHandler
                0x0000000008018c44                TAMP_STAMP_IRQHandler
                0x0000000008018c44                CAN2_RX1_IRQHandler
                0x0000000008018c44                EXTI3_IRQHandler
                0x0000000008018c44                TIM8_TRG_COM_TIM14_IRQHandler
                0x0000000008018c44                TIM8_UP_TIM13_IRQHandler
                0x0000000008018c44                I2C3_ER_IRQHandler
                0x0000000008018c44                EXTI0_IRQHandler
                0x0000000008018c44                I2C2_EV_IRQHandler
                0x0000000008018c44                DMA1_Stream2_IRQHandler
                0x0000000008018c44                CAN1_RX0_IRQHandler
                0x0000000008018c44                FPU_IRQHandler
                0x0000000008018c44                OTG_HS_WKUP_IRQHandler
                0x0000000008018c44                CAN2_SCE_IRQHandler
                0x0000000008018c44                DMA2_Stream2_IRQHandler
                0x0000000008018c44                SPI1_IRQHandler
                0x0000000008018c44                TIM1_BRK_TIM9_IRQHandler
                0x0000000008018c44                DCMI_IRQHandler
                0x0000000008018c44                CAN2_RX0_IRQHandler
                0x0000000008018c44                DMA2_Stream3_IRQHandler
                0x0000000008018c44                USART6_IRQHandler
                0x0000000008018c44                USART3_IRQHandler
                0x0000000008018c44                CAN1_RX1_IRQHandler
                0x0000000008018c44                UART5_IRQHandler
                0x0000000008018c44                TIM4_IRQHandler
                0x0000000008018c44                I2C1_EV_IRQHandler
                0x0000000008018c44                DMA1_Stream6_IRQHandler
                0x0000000008018c44                DMA1_Stream1_IRQHandler
                0x0000000008018c44                UART4_IRQHandler
                0x0000000008018c44                TIM3_IRQHandler
                0x0000000008018c44                RCC_IRQHandler
                0x0000000008018c44                TIM8_BRK_TIM12_IRQHandler
                0x0000000008018c44                Default_Handler
                0x0000000008018c44                EXTI15_10_IRQHandler
                0x0000000008018c44                ADC_IRQHandler
                0x0000000008018c44                DMA1_Stream7_IRQHandler
                0x0000000008018c44                TIM7_IRQHandler
                0x0000000008018c44                CAN2_TX_IRQHandler
                0x0000000008018c44                DMA2_Stream7_IRQHandler
                0x0000000008018c44                I2C3_EV_IRQHandler
                0x0000000008018c44                RTC_WKUP_IRQHandler
                0x0000000008018c44                ETH_WKUP_IRQHandler
                0x0000000008018c44                SPI2_IRQHandler
                0x0000000008018c44                OTG_HS_EP1_IN_IRQHandler
                0x0000000008018c44                DMA1_Stream0_IRQHandler
                0x0000000008018c44                CAN1_TX_IRQHandler
                0x0000000008018c44                EXTI4_IRQHandler
                0x0000000008018c44                FSMC_IRQHandler
                0x0000000008018c44                ETH_IRQHandler
                0x0000000008018c44                OTG_HS_EP1_OUT_IRQHandler
                0x0000000008018c44                WWDG_IRQHandler
                0x0000000008018c44                TIM2_IRQHandler
                0x0000000008018c44                OTG_FS_WKUP_IRQHandler
                0x0000000008018c44                TIM1_TRG_COM_TIM11_IRQHandler
                0x0000000008018c44                OTG_HS_IRQHandler
                0x0000000008018c44                EXTI1_IRQHandler
                0x0000000008018c44                USART2_IRQHandler
                0x0000000008018c44                I2C2_ER_IRQHandler
                0x0000000008018c44                DMA2_Stream1_IRQHandler
                0x0000000008018c44                CAN1_SCE_IRQHandler
                0x0000000008018c44                FLASH_IRQHandler
                0x0000000008018c44                DMA2_Stream4_IRQHandler
                0x0000000008018c44                USART1_IRQHandler
                0x0000000008018c44                SPI3_IRQHandler
                0x0000000008018c44                DMA1_Stream4_IRQHandler
                0x0000000008018c44                I2C1_ER_IRQHandler
                0x0000000008018c44                DMA2_Stream6_IRQHandler
                0x0000000008018c44                DMA1_Stream3_IRQHandler
 *fill*         0x0000000008018c46        0x2 
 .text.__errno  0x0000000008018c48        0xc /opt/Atollic_TrueSTUDIO_for_STM32_x86_64_9.3.0/ARMTools/bin/../lib/gcc/arm-atollic-eabi/6.3.1/../../../../arm-atollic-eabi/lib/armv7e-m/fpu/libc.a(lib_a-errno.o)
                0x0000000008018c48                __errno
 .text.__libc_init_array
                0x0000000008018c54       0x48 /opt/Atollic_TrueSTUDIO_for_STM32_x86_64_9.3.0/ARMTools/bin/../lib/gcc/arm-atollic-eabi/6.3.1/../../../../arm-atollic-eabi/lib/armv7e-m/fpu/libc.a(lib_a-init.o)
                0x0000000008018c54                __libc_init_array
 .text.malloc   0x0000000008018c9c       0x10 /opt/Atollic_TrueSTUDIO_for_STM32_x86_64_9.3.0/ARMTools/bin/../lib/gcc/arm-atollic-eabi/6.3.1/../../../../arm-atollic-eabi/lib/armv7e-m/fpu/libc.a(lib_a-malloc.o)
                0x0000000008018c9c                malloc
 .text.free     0x0000000008018cac       0x10 /opt/Atollic_TrueSTUDIO_for_STM32_x86_64_9.3.0/ARMTools/bin/../lib/gcc/arm-atollic-eabi/6.3.1/../../../../arm-atollic-eabi/lib/armv7e-m/fpu/libc.a(lib_a-malloc.o)
                0x0000000008018cac                free
 .text._malloc_r
                0x0000000008018cbc      0x41c /opt/Atollic_TrueSTUDIO_for_STM32_x86_64_9.3.0/ARMTools/bin/../lib/gcc/arm-atollic-eabi/6.3.1/../../../../arm-atollic-eabi/lib/armv7e-m/fpu/libc.a(lib_a-mallocr.o)
                0x0000000008018cbc                _malloc_r
 .text.memcpy   0x00000000080190d8       0x16 /opt/Atollic_TrueSTUDIO_for_STM32_x86_64_9.3.0/ARMTools/bin/../lib/gcc/arm-atollic-eabi/6.3.1/../../../../arm-atollic-eabi/lib/armv7e-m/fpu/libc.a(lib_a-memcpy-stub.o)
                0x00000000080190d8                memcpy
 .text.memset   0x00000000080190ee       0x10 /opt/Atollic_TrueSTUDIO_for_STM32_x86_64_9.3.0/ARMTools/bin/../lib/gcc/arm-atollic-eabi/6.3.1/../../../../arm-atollic-eabi/lib/armv7e-m/fpu/libc.a(lib_a-memset.o)
                0x00000000080190ee                memset
 *fill*         0x00000000080190fe        0x2 
 .text.__malloc_lock
                0x0000000008019100        0xc /opt/Atollic_TrueSTUDIO_for_STM32_x86_64_9.3.0/ARMTools/bin/../lib/gcc/arm-atollic-eabi/6.3.1/../../../../arm-atollic-eabi/lib/armv7e-m/fpu/libc.a(lib_a-mlock.o)
                0x0000000008019100                __malloc_lock
 .text.__malloc_unlock
                0x000000000801910c        0xc /opt/Atollic_TrueSTUDIO_for_STM32_x86_64_9.3.0/ARMTools/bin/../lib/gcc/arm-atollic-eabi/6.3.1/../../../../arm-atollic-eabi/lib/armv7e-m/fpu/libc.a(lib_a-mlock.o)
                0x000000000801910c                __malloc_unlock
 .text._sbrk_r  0x0000000008019118       0x20 /opt/Atollic_TrueSTUDIO_for_STM32_x86_64_9.3.0/ARMTools/bin/../lib/gcc/arm-atollic-eabi/6.3.1/../../../../arm-atollic-eabi/lib/armv7e-m/fpu/libc.a(lib_a-sbrkr.o)
                0x0000000008019118                _sbrk_r
 .text._sprintf_r
                0x0000000008019138       0x40 /opt/Atollic_TrueSTUDIO_for_STM32_x86_64_9.3.0/ARMTools/bin/../lib/gcc/arm-atollic-eabi/6.3.1/../../../../arm-atollic-eabi/lib/armv7e-m/fpu/libc.a(lib_a-sprintf.o)
                0x0000000008019138                _sprintf_r
 .text.sprintf  0x0000000008019178       0x48 /opt/Atollic_TrueSTUDIO_for_STM32_x86_64_9.3.0/ARMTools/bin/../lib/gcc/arm-atollic-eabi/6.3.1/../../../../arm-atollic-eabi/lib/armv7e-m/fpu/libc.a(lib_a-sprintf.o)
                0x0000000008019178                sprintf
 .text.strcpy   0x00000000080191c0       0x10 /opt/Atollic_TrueSTUDIO_for_STM32_x86_64_9.3.0/ARMTools/bin/../lib/gcc/arm-atollic-eabi/6.3.1/../../../../arm-atollic-eabi/lib/armv7e-m/fpu/libc.a(lib_a-strcpy.o)
                0x00000000080191c0                strcpy
 .text._svfprintf_r
                0x00000000080191d0      0xfa8 /opt/Atollic_TrueSTUDIO_for_STM32_x86_64_9.3.0/ARMTools/bin/../lib/gcc/arm-atollic-eabi/6.3.1/../../../../arm-atollic-eabi/lib/armv7e-m/fpu/libc.a(lib_a-svfprintf.o)
                0x00000000080191d0                _svfprintf_r
 .text.quorem   0x000000000801a178      0x118 /opt/Atollic_TrueSTUDIO_for_STM32_x86_64_9.3.0/ARMTools/bin/../lib/gcc/arm-atollic-eabi/6.3.1/../../../../arm-atollic-eabi/lib/armv7e-m/fpu/libc.a(lib_a-dtoa.o)
 .text._dtoa_r  0x000000000801a290      0xb9c /opt/Atollic_TrueSTUDIO_for_STM32_x86_64_9.3.0/ARMTools/bin/../lib/gcc/arm-atollic-eabi/6.3.1/../../../../arm-atollic-eabi/lib/armv7e-m/fpu/libc.a(lib_a-dtoa.o)
                0x000000000801a290                _dtoa_r
 .text._malloc_trim_r
                0x000000000801ae2c       0xac /opt/Atollic_TrueSTUDIO_for_STM32_x86_64_9.3.0/ARMTools/bin/../lib/gcc/arm-atollic-eabi/6.3.1/../../../../arm-atollic-eabi/lib/armv7e-m/fpu/libc.a(lib_a-freer.o)
                0x000000000801ae2c                _malloc_trim_r
 .text._free_r  0x000000000801aed8      0x178 /opt/Atollic_TrueSTUDIO_for_STM32_x86_64_9.3.0/ARMTools/bin/../lib/gcc/arm-atollic-eabi/6.3.1/../../../../arm-atollic-eabi/lib/armv7e-m/fpu/libc.a(lib_a-freer.o)
                0x000000000801aed8                _free_r
 .text.__localeconv_l
                0x000000000801b050        0x4 /opt/Atollic_TrueSTUDIO_for_STM32_x86_64_9.3.0/ARMTools/bin/../lib/gcc/arm-atollic-eabi/6.3.1/../../../../arm-atollic-eabi/lib/armv7e-m/fpu/libc.a(lib_a-localeconv.o)
                0x000000000801b050                __localeconv_l
 .text._localeconv_r
                0x000000000801b054       0x1c /opt/Atollic_TrueSTUDIO_for_STM32_x86_64_9.3.0/ARMTools/bin/../lib/gcc/arm-atollic-eabi/6.3.1/../../../../arm-atollic-eabi/lib/armv7e-m/fpu/libc.a(lib_a-localeconv.o)
                0x000000000801b054                _localeconv_r
 .text.localeconv
                0x000000000801b070       0x1c /opt/Atollic_TrueSTUDIO_for_STM32_x86_64_9.3.0/ARMTools/bin/../lib/gcc/arm-atollic-eabi/6.3.1/../../../../arm-atollic-eabi/lib/armv7e-m/fpu/libc.a(lib_a-localeconv.o)
                0x000000000801b070                localeconv
 .text.__retarget_lock_init
                0x000000000801b08c        0x2 /opt/Atollic_TrueSTUDIO_for_STM32_x86_64_9.3.0/ARMTools/bin/../lib/gcc/arm-atollic-eabi/6.3.1/../../../../arm-atollic-eabi/lib/armv7e-m/fpu/libc.a(lib_a-lock.o)
                0x000000000801b08c                __retarget_lock_init
 .text.__retarget_lock_init_recursive
                0x000000000801b08e        0x2 /opt/Atollic_TrueSTUDIO_for_STM32_x86_64_9.3.0/ARMTools/bin/../lib/gcc/arm-atollic-eabi/6.3.1/../../../../arm-atollic-eabi/lib/armv7e-m/fpu/libc.a(lib_a-lock.o)
                0x000000000801b08e                __retarget_lock_init_recursive
 .text.__retarget_lock_close
                0x000000000801b090        0x2 /opt/Atollic_TrueSTUDIO_for_STM32_x86_64_9.3.0/ARMTools/bin/../lib/gcc/arm-atollic-eabi/6.3.1/../../../../arm-atollic-eabi/lib/armv7e-m/fpu/libc.a(lib_a-lock.o)
                0x000000000801b090                __retarget_lock_close
 .text.__retarget_lock_close_recursive
                0x000000000801b092        0x2 /opt/Atollic_TrueSTUDIO_for_STM32_x86_64_9.3.0/ARMTools/bin/../lib/gcc/arm-atollic-eabi/6.3.1/../../../../arm-atollic-eabi/lib/armv7e-m/fpu/libc.a(lib_a-lock.o)
                0x000000000801b092                __retarget_lock_close_recursive
 .text.__retarget_lock_acquire
                0x000000000801b094        0x2 /opt/Atollic_TrueSTUDIO_for_STM32_x86_64_9.3.0/ARMTools/bin/../lib/gcc/arm-atollic-eabi/6.3.1/../../../../arm-atollic-eabi/lib/armv7e-m/fpu/libc.a(lib_a-lock.o)
                0x000000000801b094                __retarget_lock_acquire
 .text.__retarget_lock_acquire_recursive
                0x000000000801b096        0x2 /opt/Atollic_TrueSTUDIO_for_STM32_x86_64_9.3.0/ARMTools/bin/../lib/gcc/arm-atollic-eabi/6.3.1/../../../../arm-atollic-eabi/lib/armv7e-m/fpu/libc.a(lib_a-lock.o)
                0x000000000801b096                __retarget_lock_acquire_recursive
 .text.__retarget_lock_try_acquire
                0x000000000801b098        0x4 /opt/Atollic_TrueSTUDIO_for_STM32_x86_64_9.3.0/ARMTools/bin/../lib/gcc/arm-atollic-eabi/6.3.1/../../../../arm-atollic-eabi/lib/armv7e-m/fpu/libc.a(lib_a-lock.o)
                0x000000000801b098                __retarget_lock_try_acquire
 .text.__retarget_lock_try_acquire_recursive
                0x000000000801b09c        0x4 /opt/Atollic_TrueSTUDIO_for_STM32_x86_64_9.3.0/ARMTools/bin/../lib/gcc/arm-atollic-eabi/6.3.1/../../../../arm-atollic-eabi/lib/armv7e-m/fpu/libc.a(lib_a-lock.o)
                0x000000000801b09c                __retarget_lock_try_acquire_recursive
 .text.__retarget_lock_release
                0x000000000801b0a0        0x2 /opt/Atollic_TrueSTUDIO_for_STM32_x86_64_9.3.0/ARMTools/bin/../lib/gcc/arm-atollic-eabi/6.3.1/../../../../arm-atollic-eabi/lib/armv7e-m/fpu/libc.a(lib_a-lock.o)
                0x000000000801b0a0                __retarget_lock_release
 .text.__retarget_lock_release_recursive
                0x000000000801b0a2        0x2 /opt/Atollic_TrueSTUDIO_for_STM32_x86_64_9.3.0/ARMTools/bin/../lib/gcc/arm-atollic-eabi/6.3.1/../../../../arm-atollic-eabi/lib/armv7e-m/fpu/libc.a(lib_a-lock.o)
                0x000000000801b0a2                __retarget_lock_release_recursive
 .text._Balloc  0x000000000801b0a4       0x68 /opt/Atollic_TrueSTUDIO_for_STM32_x86_64_9.3.0/ARMTools/bin/../lib/gcc/arm-atollic-eabi/6.3.1/../../../../arm-atollic-eabi/lib/armv7e-m/fpu/libc.a(lib_a-mprec.o)
                0x000000000801b0a4                _Balloc
 .text._Bfree   0x000000000801b10c       0x2e /opt/Atollic_TrueSTUDIO_for_STM32_x86_64_9.3.0/ARMTools/bin/../lib/gcc/arm-atollic-eabi/6.3.1/../../../../arm-atollic-eabi/lib/armv7e-m/fpu/libc.a(lib_a-mprec.o)
                0x000000000801b10c                _Bfree
 .text.__multadd
                0x000000000801b13a       0x76 /opt/Atollic_TrueSTUDIO_for_STM32_x86_64_9.3.0/ARMTools/bin/../lib/gcc/arm-atollic-eabi/6.3.1/../../../../arm-atollic-eabi/lib/armv7e-m/fpu/libc.a(lib_a-mprec.o)
                0x000000000801b13a                __multadd
 .text.__s2b    0x000000000801b1b0       0x7c /opt/Atollic_TrueSTUDIO_for_STM32_x86_64_9.3.0/ARMTools/bin/../lib/gcc/arm-atollic-eabi/6.3.1/../../../../arm-atollic-eabi/lib/armv7e-m/fpu/libc.a(lib_a-mprec.o)
                0x000000000801b1b0                __s2b
 .text.__hi0bits
                0x000000000801b22c       0x3e /opt/Atollic_TrueSTUDIO_for_STM32_x86_64_9.3.0/ARMTools/bin/../lib/gcc/arm-atollic-eabi/6.3.1/../../../../arm-atollic-eabi/lib/armv7e-m/fpu/libc.a(lib_a-mprec.o)
                0x000000000801b22c                __hi0bits
 .text.__lo0bits
                0x000000000801b26a       0x5e /opt/Atollic_TrueSTUDIO_for_STM32_x86_64_9.3.0/ARMTools/bin/../lib/gcc/arm-atollic-eabi/6.3.1/../../../../arm-atollic-eabi/lib/armv7e-m/fpu/libc.a(lib_a-mprec.o)
                0x000000000801b26a                __lo0bits
 .text.__i2b    0x000000000801b2c8       0x12 /opt/Atollic_TrueSTUDIO_for_STM32_x86_64_9.3.0/ARMTools/bin/../lib/gcc/arm-atollic-eabi/6.3.1/../../../../arm-atollic-eabi/lib/armv7e-m/fpu/libc.a(lib_a-mprec.o)
                0x000000000801b2c8                __i2b
 .text.__multiply
                0x000000000801b2da      0x11a /opt/Atollic_TrueSTUDIO_for_STM32_x86_64_9.3.0/ARMTools/bin/../lib/gcc/arm-atollic-eabi/6.3.1/../../../../arm-atollic-eabi/lib/armv7e-m/fpu/libc.a(lib_a-mprec.o)
                0x000000000801b2da                __multiply
 .text.__pow5mult
                0x000000000801b3f4       0x9c /opt/Atollic_TrueSTUDIO_for_STM32_x86_64_9.3.0/ARMTools/bin/../lib/gcc/arm-atollic-eabi/6.3.1/../../../../arm-atollic-eabi/lib/armv7e-m/fpu/libc.a(lib_a-mprec.o)
                0x000000000801b3f4                __pow5mult
 .text.__lshift
                0x000000000801b490       0xa2 /opt/Atollic_TrueSTUDIO_for_STM32_x86_64_9.3.0/ARMTools/bin/../lib/gcc/arm-atollic-eabi/6.3.1/../../../../arm-atollic-eabi/lib/armv7e-m/fpu/libc.a(lib_a-mprec.o)
                0x000000000801b490                __lshift
 .text.__mcmp   0x000000000801b532       0x34 /opt/Atollic_TrueSTUDIO_for_STM32_x86_64_9.3.0/ARMTools/bin/../lib/gcc/arm-atollic-eabi/6.3.1/../../../../arm-atollic-eabi/lib/armv7e-m/fpu/libc.a(lib_a-mprec.o)
                0x000000000801b532                __mcmp
 .text.__mdiff  0x000000000801b566       0xbc /opt/Atollic_TrueSTUDIO_for_STM32_x86_64_9.3.0/ARMTools/bin/../lib/gcc/arm-atollic-eabi/6.3.1/../../../../arm-atollic-eabi/lib/armv7e-m/fpu/libc.a(lib_a-mprec.o)
                0x000000000801b566                __mdiff
 *fill*         0x000000000801b622        0x2 
 .text.__ulp    0x000000000801b624       0x50 /opt/Atollic_TrueSTUDIO_for_STM32_x86_64_9.3.0/ARMTools/bin/../lib/gcc/arm-atollic-eabi/6.3.1/../../../../arm-atollic-eabi/lib/armv7e-m/fpu/libc.a(lib_a-mprec.o)
                0x000000000801b624                __ulp
 .text.__b2d    0x000000000801b674       0x9c /opt/Atollic_TrueSTUDIO_for_STM32_x86_64_9.3.0/ARMTools/bin/../lib/gcc/arm-atollic-eabi/6.3.1/../../../../arm-atollic-eabi/lib/armv7e-m/fpu/libc.a(lib_a-mprec.o)
                0x000000000801b674                __b2d
 .text.__d2b    0x000000000801b710       0x9e /opt/Atollic_TrueSTUDIO_for_STM32_x86_64_9.3.0/ARMTools/bin/../lib/gcc/arm-atollic-eabi/6.3.1/../../../../arm-atollic-eabi/lib/armv7e-m/fpu/libc.a(lib_a-mprec.o)
                0x000000000801b710                __d2b
 .text.__ratio  0x000000000801b7ae       0x58 /opt/Atollic_TrueSTUDIO_for_STM32_x86_64_9.3.0/ARMTools/bin/../lib/gcc/arm-atollic-eabi/6.3.1/../../../../arm-atollic-eabi/lib/armv7e-m/fpu/libc.a(lib_a-mprec.o)
                0x000000000801b7ae                __ratio
 *fill*         0x000000000801b806        0x2 
 .text._mprec_log10
                0x000000000801b808       0x3c /opt/Atollic_TrueSTUDIO_for_STM32_x86_64_9.3.0/ARMTools/bin/../lib/gcc/arm-atollic-eabi/6.3.1/../../../../arm-atollic-eabi/lib/armv7e-m/fpu/libc.a(lib_a-mprec.o)
                0x000000000801b808                _mprec_log10
 .text.__copybits
                0x000000000801b844       0x34 /opt/Atollic_TrueSTUDIO_for_STM32_x86_64_9.3.0/ARMTools/bin/../lib/gcc/arm-atollic-eabi/6.3.1/../../../../arm-atollic-eabi/lib/armv7e-m/fpu/libc.a(lib_a-mprec.o)
                0x000000000801b844                __copybits
 .text.__any_on
                0x000000000801b878       0x42 /opt/Atollic_TrueSTUDIO_for_STM32_x86_64_9.3.0/ARMTools/bin/../lib/gcc/arm-atollic-eabi/6.3.1/../../../../arm-atollic-eabi/lib/armv7e-m/fpu/libc.a(lib_a-mprec.o)
                0x000000000801b878                __any_on
 .text.cleanup_glue
                0x000000000801b8ba       0x1a /opt/Atollic_TrueSTUDIO_for_STM32_x86_64_9.3.0/ARMTools/bin/../lib/gcc/arm-atollic-eabi/6.3.1/../../../../arm-atollic-eabi/lib/armv7e-m/fpu/libc.a(lib_a-reent.o)
                0x000000000801b8ba                cleanup_glue
 .text._reclaim_reent
                0x000000000801b8d4       0xcc /opt/Atollic_TrueSTUDIO_for_STM32_x86_64_9.3.0/ARMTools/bin/../lib/gcc/arm-atollic-eabi/6.3.1/../../../../arm-atollic-eabi/lib/armv7e-m/fpu/libc.a(lib_a-reent.o)
                0x000000000801b8d4                _reclaim_reent
 .text.__ssprint_r
                0x000000000801b9a0       0xf4 /opt/Atollic_TrueSTUDIO_for_STM32_x86_64_9.3.0/ARMTools/bin/../lib/gcc/arm-atollic-eabi/6.3.1/../../../../arm-atollic-eabi/lib/armv7e-m/fpu/libc.a(lib_a-svfiprintf.o)
                0x000000000801b9a0                __ssprint_r
 .text._svfiprintf_r
                0x000000000801ba94      0x7d0 /opt/Atollic_TrueSTUDIO_for_STM32_x86_64_9.3.0/ARMTools/bin/../lib/gcc/arm-atollic-eabi/6.3.1/../../../../arm-atollic-eabi/lib/armv7e-m/fpu/libc.a(lib_a-svfiprintf.o)
                0x000000000801ba94                _svfiprintf_r
 .text._calloc_r
                0x000000000801c264       0x5a /opt/Atollic_TrueSTUDIO_for_STM32_x86_64_9.3.0/ARMTools/bin/../lib/gcc/arm-atollic-eabi/6.3.1/../../../../arm-atollic-eabi/lib/armv7e-m/fpu/libc.a(lib_a-callocr.o)
                0x000000000801c264                _calloc_r
 *fill*         0x000000000801c2be        0x2 
 .text._setlocale_r
                0x000000000801c2c0       0x38 /opt/Atollic_TrueSTUDIO_for_STM32_x86_64_9.3.0/ARMTools/bin/../lib/gcc/arm-atollic-eabi/6.3.1/../../../../arm-atollic-eabi/lib/armv7e-m/fpu/libc.a(lib_a-locale.o)
                0x000000000801c2c0                _setlocale_r
 .text.__locale_mb_cur_max
                0x000000000801c2f8       0x1c /opt/Atollic_TrueSTUDIO_for_STM32_x86_64_9.3.0/ARMTools/bin/../lib/gcc/arm-atollic-eabi/6.3.1/../../../../arm-atollic-eabi/lib/armv7e-m/fpu/libc.a(lib_a-locale.o)
                0x000000000801c2f8                __locale_mb_cur_max
 .text.__locale_ctype_ptr_l
                0x000000000801c314        0x6 /opt/Atollic_TrueSTUDIO_for_STM32_x86_64_9.3.0/ARMTools/bin/../lib/gcc/arm-atollic-eabi/6.3.1/../../../../arm-atollic-eabi/lib/armv7e-m/fpu/libc.a(lib_a-locale.o)
                0x000000000801c314                __locale_ctype_ptr_l
 *fill*         0x000000000801c31a        0x2 
 .text.__locale_ctype_ptr
                0x000000000801c31c       0x1c /opt/Atollic_TrueSTUDIO_for_STM32_x86_64_9.3.0/ARMTools/bin/../lib/gcc/arm-atollic-eabi/6.3.1/../../../../arm-atollic-eabi/lib/armv7e-m/fpu/libc.a(lib_a-locale.o)
                0x000000000801c31c                __locale_ctype_ptr
 .text.setlocale
                0x000000000801c338       0x10 /opt/Atollic_TrueSTUDIO_for_STM32_x86_64_9.3.0/ARMTools/bin/../lib/gcc/arm-atollic-eabi/6.3.1/../../../../arm-atollic-eabi/lib/armv7e-m/fpu/libc.a(lib_a-locale.o)
                0x000000000801c338                setlocale
 .text._mbtowc_r
                0x000000000801c348       0x24 /opt/Atollic_TrueSTUDIO_for_STM32_x86_64_9.3.0/ARMTools/bin/../lib/gcc/arm-atollic-eabi/6.3.1/../../../../arm-atollic-eabi/lib/armv7e-m/fpu/libc.a(lib_a-mbtowc_r.o)
                0x000000000801c348                _mbtowc_r
 .text.__ascii_mbtowc
                0x000000000801c36c       0x24 /opt/Atollic_TrueSTUDIO_for_STM32_x86_64_9.3.0/ARMTools/bin/../lib/gcc/arm-atollic-eabi/6.3.1/../../../../arm-atollic-eabi/lib/armv7e-m/fpu/libc.a(lib_a-mbtowc_r.o)
                0x000000000801c36c                __ascii_mbtowc
 .text.memmove  0x000000000801c390       0x34 /opt/Atollic_TrueSTUDIO_for_STM32_x86_64_9.3.0/ARMTools/bin/../lib/gcc/arm-atollic-eabi/6.3.1/../../../../arm-atollic-eabi/lib/armv7e-m/fpu/libc.a(lib_a-memmove.o)
                0x000000000801c390                memmove
 .text._realloc_r
                0x000000000801c3c4      0x300 /opt/Atollic_TrueSTUDIO_for_STM32_x86_64_9.3.0/ARMTools/bin/../lib/gcc/arm-atollic-eabi/6.3.1/../../../../arm-atollic-eabi/lib/armv7e-m/fpu/libc.a(lib_a-reallocr.o)
                0x000000000801c3c4                _realloc_r
 .text._wctomb_r
                0x000000000801c6c4       0x24 /opt/Atollic_TrueSTUDIO_for_STM32_x86_64_9.3.0/ARMTools/bin/../lib/gcc/arm-atollic-eabi/6.3.1/../../../../arm-atollic-eabi/lib/armv7e-m/fpu/libc.a(lib_a-wctomb_r.o)
                0x000000000801c6c4                _wctomb_r
 .text.__ascii_wctomb
                0x000000000801c6e8       0x1a /opt/Atollic_TrueSTUDIO_for_STM32_x86_64_9.3.0/ARMTools/bin/../lib/gcc/arm-atollic-eabi/6.3.1/../../../../arm-atollic-eabi/lib/armv7e-m/fpu/libc.a(lib_a-wctomb_r.o)
                0x000000000801c6e8                __ascii_wctomb
 *fill*         0x000000000801c702        0x2 
 .text.sqrt     0x000000000801c704       0xb4 /opt/Atollic_TrueSTUDIO_for_STM32_x86_64_9.3.0/ARMTools/bin/../lib/gcc/arm-atollic-eabi/6.3.1/../../../../arm-atollic-eabi/lib/armv7e-m/fpu/libm.a(lib_a-w_sqrt.o)
                0x000000000801c704                sqrt
 .text.__ieee754_sqrt
                0x000000000801c7b8      0x160 /opt/Atollic_TrueSTUDIO_for_STM32_x86_64_9.3.0/ARMTools/bin/../lib/gcc/arm-atollic-eabi/6.3.1/../../../../arm-atollic-eabi/lib/armv7e-m/fpu/libm.a(lib_a-e_sqrt.o)
                0x000000000801c7b8                __ieee754_sqrt
 .text.matherr  0x000000000801c918        0x4 /opt/Atollic_TrueSTUDIO_for_STM32_x86_64_9.3.0/ARMTools/bin/../lib/gcc/arm-atollic-eabi/6.3.1/../../../../arm-atollic-eabi/lib/armv7e-m/fpu/libm.a(lib_a-s_matherr.o)
                0x000000000801c918                matherr
 *(.glue_7)
 .glue_7        0x000000000801c91c        0x0 linker stubs
 *(.glue_7t)
 .glue_7t       0x000000000801c91c        0x0 linker stubs
 *(.eh_frame)
 .eh_frame      0x000000000801c91c        0x0 /opt/Atollic_TrueSTUDIO_for_STM32_x86_64_9.3.0/ARMTools/bin/../lib/gcc/arm-atollic-eabi/6.3.1/armv7e-m/fpu/crtbegin.o
 .eh_frame      0x000000000801c91c        0x4 /opt/Atollic_TrueSTUDIO_for_STM32_x86_64_9.3.0/ARMTools/bin/../lib/gcc/arm-atollic-eabi/6.3.1/armv7e-m/fpu/crtend.o
 *(.init)
 .init          0x000000000801c920        0x4 /opt/Atollic_TrueSTUDIO_for_STM32_x86_64_9.3.0/ARMTools/bin/../lib/gcc/arm-atollic-eabi/6.3.1/armv7e-m/fpu/crti.o
                0x000000000801c920                _init
 .init          0x000000000801c924        0x8 /opt/Atollic_TrueSTUDIO_for_STM32_x86_64_9.3.0/ARMTools/bin/../lib/gcc/arm-atollic-eabi/6.3.1/armv7e-m/fpu/crtn.o
 *(.fini)
 .fini          0x000000000801c92c        0x4 /opt/Atollic_TrueSTUDIO_for_STM32_x86_64_9.3.0/ARMTools/bin/../lib/gcc/arm-atollic-eabi/6.3.1/armv7e-m/fpu/crti.o
                0x000000000801c92c                _fini
 .fini          0x000000000801c930        0x8 /opt/Atollic_TrueSTUDIO_for_STM32_x86_64_9.3.0/ARMTools/bin/../lib/gcc/arm-atollic-eabi/6.3.1/armv7e-m/fpu/crtn.o
                0x000000000801c938                . = ALIGN (0x4)
                0x000000000801c938                _etext = .

.vfp11_veneer   0x000000000801c938        0x0
 .vfp11_veneer  0x000000000801c938        0x0 linker stubs

.v4_bx          0x000000000801c938        0x0
 .v4_bx         0x000000000801c938        0x0 linker stubs

.iplt           0x000000000801c938        0x0
 .iplt          0x000000000801c938        0x0 /opt/Atollic_TrueSTUDIO_for_STM32_x86_64_9.3.0/ARMTools/bin/../lib/gcc/arm-atollic-eabi/6.3.1/armv7e-m/fpu/crtbegin.o

.rodata         0x000000000801c938      0x8d4
                0x000000000801c938                . = ALIGN (0x4)
 *(.rodata)
 .rodata        0x000000000801c938       0x9c Core/src/freertos.o
                0x000000000801c938                heartBeatTimer_attributes
                0x000000000801c948                envelopeTimeoutTimer_attributes
                0x000000000801c958                hubWatchDogTimer_attributes
                0x000000000801c968                Default_attributes
                0x000000000801c98c                analog_attributes
                0x000000000801c9b0                communication_attributes
 .rodata        0x000000000801c9d4       0x18 Core/src/system_stm32f4xx.o
                0x000000000801c9d4                AHBPrescTable
                0x000000000801c9e4                APBPrescTable
 .rodata        0x000000000801c9ec        0x8 Drivers/STM32F4xx_HAL_Driver/Src/stm32f4xx_hal_dma.o
 .rodata        0x000000000801c9f4       0x64 Source/config.o
                0x000000000801c9f4                DefaultConfig
 .rodata        0x000000000801ca58      0x400 Source/crc32.o
 *(.rodata*)
 .rodata.str1.4
                0x000000000801ce58       0x5c Core/src/freertos.o
 .rodata.str1.4
                0x000000000801ceb4       0x11 Middlewares/Third_Party/FreeRTOS/Source/CMSIS_RTOS_V2/cmsis_os2.o
 *fill*         0x000000000801cec5        0x3 
 .rodata.str1.4
                0x000000000801cec8       0x30 Middlewares/Third_Party/FreeRTOS/Source/tasks.o
 .rodata.str1.4
                0x000000000801cef8       0x10 Middlewares/Third_Party/FreeRTOS/Source/timers.o
 .rodata.str1.4
                0x000000000801cf08       0x48 USB_DEVICE/App/usbd_desc.o
                                         0x46 (size before relaxing)
 .rodata._global_impure_ptr
                0x000000000801cf50        0x4 /opt/Atollic_TrueSTUDIO_for_STM32_x86_64_9.3.0/ARMTools/bin/../lib/gcc/arm-atollic-eabi/6.3.1/../../../../arm-atollic-eabi/lib/armv7e-m/fpu/libc.a(lib_a-impure.o)
                0x000000000801cf50                _global_impure_ptr
 .rodata._svfprintf_r.str1.1
                0x000000000801cf54       0x34 /opt/Atollic_TrueSTUDIO_for_STM32_x86_64_9.3.0/ARMTools/bin/../lib/gcc/arm-atollic-eabi/6.3.1/../../../../arm-atollic-eabi/lib/armv7e-m/fpu/libc.a(lib_a-svfprintf.o)
 .rodata.blanks.8359
                0x000000000801cf88       0x10 /opt/Atollic_TrueSTUDIO_for_STM32_x86_64_9.3.0/ARMTools/bin/../lib/gcc/arm-atollic-eabi/6.3.1/../../../../arm-atollic-eabi/lib/armv7e-m/fpu/libc.a(lib_a-svfprintf.o)
 .rodata.zeroes.8360
                0x000000000801cf98       0x10 /opt/Atollic_TrueSTUDIO_for_STM32_x86_64_9.3.0/ARMTools/bin/../lib/gcc/arm-atollic-eabi/6.3.1/../../../../arm-atollic-eabi/lib/armv7e-m/fpu/libc.a(lib_a-svfprintf.o)
 .rodata._dtoa_r.str1.1
                0x000000000801cfa8        0xd /opt/Atollic_TrueSTUDIO_for_STM32_x86_64_9.3.0/ARMTools/bin/../lib/gcc/arm-atollic-eabi/6.3.1/../../../../arm-atollic-eabi/lib/armv7e-m/fpu/libc.a(lib_a-dtoa.o)
                                          0xf (size before relaxing)
 *fill*         0x000000000801cfb5        0x3 
 .rodata.__mprec_bigtens
                0x000000000801cfb8       0x28 /opt/Atollic_TrueSTUDIO_for_STM32_x86_64_9.3.0/ARMTools/bin/../lib/gcc/arm-atollic-eabi/6.3.1/../../../../arm-atollic-eabi/lib/armv7e-m/fpu/libc.a(lib_a-mprec.o)
                0x000000000801cfb8                __mprec_bigtens
 .rodata.__mprec_tens
                0x000000000801cfe0       0xc8 /opt/Atollic_TrueSTUDIO_for_STM32_x86_64_9.3.0/ARMTools/bin/../lib/gcc/arm-atollic-eabi/6.3.1/../../../../arm-atollic-eabi/lib/armv7e-m/fpu/libc.a(lib_a-mprec.o)
                0x000000000801cfe0                __mprec_tens
 .rodata.__mprec_tinytens
                0x000000000801d0a8       0x28 /opt/Atollic_TrueSTUDIO_for_STM32_x86_64_9.3.0/ARMTools/bin/../lib/gcc/arm-atollic-eabi/6.3.1/../../../../arm-atollic-eabi/lib/armv7e-m/fpu/libc.a(lib_a-mprec.o)
                0x000000000801d0a8                __mprec_tinytens
 .rodata.p05.7196
                0x000000000801d0d0        0xc /opt/Atollic_TrueSTUDIO_for_STM32_x86_64_9.3.0/ARMTools/bin/../lib/gcc/arm-atollic-eabi/6.3.1/../../../../arm-atollic-eabi/lib/armv7e-m/fpu/libc.a(lib_a-mprec.o)
 .rodata._svfiprintf_r.str1.1
                0x000000000801d0dc       0x22 /opt/Atollic_TrueSTUDIO_for_STM32_x86_64_9.3.0/ARMTools/bin/../lib/gcc/arm-atollic-eabi/6.3.1/../../../../arm-atollic-eabi/lib/armv7e-m/fpu/libc.a(lib_a-svfiprintf.o)
 .rodata.blanks.8339
                0x000000000801d0dc       0x10 /opt/Atollic_TrueSTUDIO_for_STM32_x86_64_9.3.0/ARMTools/bin/../lib/gcc/arm-atollic-eabi/6.3.1/../../../../arm-atollic-eabi/lib/armv7e-m/fpu/libc.a(lib_a-svfiprintf.o)
 .rodata.zeroes.8340
                0x000000000801d0ec       0x10 /opt/Atollic_TrueSTUDIO_for_STM32_x86_64_9.3.0/ARMTools/bin/../lib/gcc/arm-atollic-eabi/6.3.1/../../../../arm-atollic-eabi/lib/armv7e-m/fpu/libc.a(lib_a-svfiprintf.o)
 .rodata._setlocale_r.str1.1
                0x000000000801d0fc        0x8 /opt/Atollic_TrueSTUDIO_for_STM32_x86_64_9.3.0/ARMTools/bin/../lib/gcc/arm-atollic-eabi/6.3.1/../../../../arm-atollic-eabi/lib/armv7e-m/fpu/libc.a(lib_a-locale.o)
                                          0x9 (size before relaxing)
 .rodata.str1.1
                0x000000000801d104        0x2 /opt/Atollic_TrueSTUDIO_for_STM32_x86_64_9.3.0/ARMTools/bin/../lib/gcc/arm-atollic-eabi/6.3.1/../../../../arm-atollic-eabi/lib/armv7e-m/fpu/libc.a(lib_a-locale.o)
 .rodata._ctype_
                0x000000000801d106      0x101 /opt/Atollic_TrueSTUDIO_for_STM32_x86_64_9.3.0/ARMTools/bin/../lib/gcc/arm-atollic-eabi/6.3.1/../../../../arm-atollic-eabi/lib/armv7e-m/fpu/libc.a(lib_a-ctype_.o)
                0x000000000801d106                _ctype_
 .rodata.sqrt.str1.1
                0x000000000801d207        0x5 /opt/Atollic_TrueSTUDIO_for_STM32_x86_64_9.3.0/ARMTools/bin/../lib/gcc/arm-atollic-eabi/6.3.1/../../../../arm-atollic-eabi/lib/armv7e-m/fpu/libm.a(lib_a-w_sqrt.o)
                0x000000000801d20c                . = ALIGN (0x4)

.ARM.extab      0x000000000801d20c        0x0
 *(.ARM.extab* .gnu.linkonce.armextab.*)
 .ARM.extab     0x000000000801d20c        0x0 /opt/Atollic_TrueSTUDIO_for_STM32_x86_64_9.3.0/ARMTools/bin/../lib/gcc/arm-atollic-eabi/6.3.1/armv7e-m/fpu/libgcc.a(_udivmoddi4.o)

.ARM            0x000000000801d20c        0x8
                0x000000000801d20c                __exidx_start = .
 *(.ARM.exidx*)
 .ARM.exidx     0x000000000801d20c        0x8 /opt/Atollic_TrueSTUDIO_for_STM32_x86_64_9.3.0/ARMTools/bin/../lib/gcc/arm-atollic-eabi/6.3.1/armv7e-m/fpu/libgcc.a(_udivmoddi4.o)
                0x000000000801d214                __exidx_end = .

.rel.dyn        0x000000000801d214        0x0
 .rel.iplt      0x000000000801d214        0x0 /opt/Atollic_TrueSTUDIO_for_STM32_x86_64_9.3.0/ARMTools/bin/../lib/gcc/arm-atollic-eabi/6.3.1/armv7e-m/fpu/crtbegin.o

.preinit_array  0x000000000801d214        0x0
                0x000000000801d214                PROVIDE (__preinit_array_start, .)
 *(.preinit_array*)
                0x000000000801d214                PROVIDE (__preinit_array_end, .)

.init_array     0x000000000801d214        0x4
                0x000000000801d214                PROVIDE (__init_array_start, .)
 *(SORT(.init_array.*))
 *(.init_array*)
 .init_array    0x000000000801d214        0x4 /opt/Atollic_TrueSTUDIO_for_STM32_x86_64_9.3.0/ARMTools/bin/../lib/gcc/arm-atollic-eabi/6.3.1/armv7e-m/fpu/crtbegin.o
                0x000000000801d218                PROVIDE (__init_array_end, .)

.fini_array     0x000000000801d218        0x4
                [!provide]                        PROVIDE (__fini_array_start, .)
 *(SORT(.fini_array.*))
 *(.fini_array*)
 .fini_array    0x000000000801d218        0x4 /opt/Atollic_TrueSTUDIO_for_STM32_x86_64_9.3.0/ARMTools/bin/../lib/gcc/arm-atollic-eabi/6.3.1/armv7e-m/fpu/crtbegin.o
                [!provide]                        PROVIDE (__fini_array_end, .)
                0x000000000801d21c                _sidata = LOADADDR (.data)

.data           0x0000000020000000      0x7fc load address 0x000000000801d21c
                0x0000000020000000                . = ALIGN (0x4)
                0x0000000020000000                _sdata = .
 *(.data)
 .data          0x0000000020000000        0x0 /opt/Atollic_TrueSTUDIO_for_STM32_x86_64_9.3.0/ARMTools/bin/../lib/gcc/arm-atollic-eabi/6.3.1/armv7e-m/fpu/crti.o
 .data          0x0000000020000000        0x4 /opt/Atollic_TrueSTUDIO_for_STM32_x86_64_9.3.0/ARMTools/bin/../lib/gcc/arm-atollic-eabi/6.3.1/armv7e-m/fpu/crtbegin.o
                0x0000000020000000                __dso_handle
 .data          0x0000000020000004        0x0 Core/src/adc.o
 .data          0x0000000020000004        0x0 Core/src/can.o
 .data          0x0000000020000004        0x0 Core/src/dac.o
 .data          0x0000000020000004        0x0 Core/src/dma.o
 .data          0x0000000020000004        0x0 Core/src/freertos.o
 .data          0x0000000020000004        0x0 Core/src/gpio.o
 .data          0x0000000020000004        0x0 Core/src/i2c.o
 .data          0x0000000020000004        0x0 Core/src/main.o
 .data          0x0000000020000004        0x0 Core/src/stm32f4xx_hal_msp.o
 .data          0x0000000020000004        0x0 Core/src/stm32f4xx_hal_timebase_tim.o
 .data          0x0000000020000004        0x0 Core/src/stm32f4xx_it.o
 .data          0x0000000020000004        0x4 Core/src/syscalls.o
                0x0000000020000004                environ
 .data          0x0000000020000008        0x4 Core/src/system_stm32f4xx.o
                0x0000000020000008                SystemCoreClock
 .data          0x000000002000000c        0x0 Core/src/tim.o
 .data          0x000000002000000c        0x8 Drivers/STM32F4xx_HAL_Driver/Src/stm32f4xx_hal.o
                0x000000002000000c                uwTickFreq
                0x0000000020000010                uwTickPrio
 .data          0x0000000020000014        0x0 Drivers/STM32F4xx_HAL_Driver/Src/stm32f4xx_hal_adc.o
 .data          0x0000000020000014        0x0 Drivers/STM32F4xx_HAL_Driver/Src/stm32f4xx_hal_adc_ex.o
 .data          0x0000000020000014        0x0 Drivers/STM32F4xx_HAL_Driver/Src/stm32f4xx_hal_can.o
 .data          0x0000000020000014        0x0 Drivers/STM32F4xx_HAL_Driver/Src/stm32f4xx_hal_cortex.o
 .data          0x0000000020000014        0x0 Drivers/STM32F4xx_HAL_Driver/Src/stm32f4xx_hal_dac.o
 .data          0x0000000020000014        0x0 Drivers/STM32F4xx_HAL_Driver/Src/stm32f4xx_hal_dac_ex.o
 .data          0x0000000020000014        0x0 Drivers/STM32F4xx_HAL_Driver/Src/stm32f4xx_hal_dma.o
 .data          0x0000000020000014        0x0 Drivers/STM32F4xx_HAL_Driver/Src/stm32f4xx_hal_dma_ex.o
 .data          0x0000000020000014        0x0 Drivers/STM32F4xx_HAL_Driver/Src/stm32f4xx_hal_exti.o
 .data          0x0000000020000014        0x0 Drivers/STM32F4xx_HAL_Driver/Src/stm32f4xx_hal_flash.o
 .data          0x0000000020000014        0x0 Drivers/STM32F4xx_HAL_Driver/Src/stm32f4xx_hal_flash_ex.o
 .data          0x0000000020000014        0x0 Drivers/STM32F4xx_HAL_Driver/Src/stm32f4xx_hal_flash_ramfunc.o
 .data          0x0000000020000014        0x0 Drivers/STM32F4xx_HAL_Driver/Src/stm32f4xx_hal_gpio.o
 .data          0x0000000020000014        0x0 Drivers/STM32F4xx_HAL_Driver/Src/stm32f4xx_hal_i2c.o
 .data          0x0000000020000014        0x0 Drivers/STM32F4xx_HAL_Driver/Src/stm32f4xx_hal_i2c_ex.o
 .data          0x0000000020000014        0x0 Drivers/STM32F4xx_HAL_Driver/Src/stm32f4xx_hal_pcd.o
 .data          0x0000000020000014        0x0 Drivers/STM32F4xx_HAL_Driver/Src/stm32f4xx_hal_pcd_ex.o
 .data          0x0000000020000014        0x0 Drivers/STM32F4xx_HAL_Driver/Src/stm32f4xx_hal_pwr.o
 .data          0x0000000020000014        0x0 Drivers/STM32F4xx_HAL_Driver/Src/stm32f4xx_hal_pwr_ex.o
 .data          0x0000000020000014        0x0 Drivers/STM32F4xx_HAL_Driver/Src/stm32f4xx_hal_rcc.o
 .data          0x0000000020000014        0x0 Drivers/STM32F4xx_HAL_Driver/Src/stm32f4xx_hal_rcc_ex.o
 .data          0x0000000020000014        0x0 Drivers/STM32F4xx_HAL_Driver/Src/stm32f4xx_hal_tim.o
 .data          0x0000000020000014        0x0 Drivers/STM32F4xx_HAL_Driver/Src/stm32f4xx_hal_tim_ex.o
 .data          0x0000000020000014        0x0 Drivers/STM32F4xx_HAL_Driver/Src/stm32f4xx_ll_usb.o
 .data          0x0000000020000014      0x110 Middlewares/ST/STM32_USB_Device_Library/Class/CDC/Src/usbd_cdc.o
                0x0000000020000014                USBD_CDC_CfgFSDesc
                0x0000000020000058                USBD_CDC_CfgHSDesc
                0x000000002000009c                USBD_CDC_OtherSpeedCfgDesc
                0x00000000200000ec                USBD_CDC
 .data          0x0000000020000124        0x0 Middlewares/ST/STM32_USB_Device_Library/Core/Src/usbd_core.o
 .data          0x0000000020000124        0x0 Middlewares/ST/STM32_USB_Device_Library/Core/Src/usbd_ctlreq.o
 .data          0x0000000020000124        0x0 Middlewares/ST/STM32_USB_Device_Library/Core/Src/usbd_ioreq.o
 .data          0x0000000020000124        0x0 Middlewares/Third_Party/FreeRTOS/Source/CMSIS_RTOS_V2/cmsis_os2.o
 .data          0x0000000020000124        0x0 Middlewares/Third_Party/FreeRTOS/Source/croutine.o
 .data          0x0000000020000124        0x0 Middlewares/Third_Party/FreeRTOS/Source/event_groups.o
 .data          0x0000000020000124        0x0 Middlewares/Third_Party/FreeRTOS/Source/list.o
 .data          0x0000000020000124        0x4 Middlewares/Third_Party/FreeRTOS/Source/portable/GCC/ARM_CM4F/port.o
 .data          0x0000000020000128        0x0 Middlewares/Third_Party/FreeRTOS/Source/portable/MemMang/heap_4.o
 .data          0x0000000020000128        0x0 Middlewares/Third_Party/FreeRTOS/Source/queue.o
 .data          0x0000000020000128        0x0 Middlewares/Third_Party/FreeRTOS/Source/stream_buffer.o
 .data          0x0000000020000128        0x0 Middlewares/Third_Party/FreeRTOS/Source/tasks.o
 .data          0x0000000020000128        0x0 Middlewares/Third_Party/FreeRTOS/Source/timers.o
 .data          0x0000000020000128        0x0 Source/Tasks/analog.o
 .data          0x0000000020000128        0x0 Source/Tasks/communication.o
 .data          0x0000000020000128        0x0 Source/Timers/envelope.o
 .data          0x0000000020000128        0x0 Source/Timers/heartbeat.o
 .data          0x0000000020000128        0x0 Source/bmp280.o
 .data          0x0000000020000128        0x0 Source/config.o
 .data          0x0000000020000128        0x0 Source/crc32.o
 .data          0x0000000020000128        0x0 Source/debug.o
 .data          0x0000000020000128        0x0 Source/hub.o
 .data          0x0000000020000128        0x0 Source/hx711.o
 .data          0x0000000020000128        0x0 Source/stepper.o
 .data          0x0000000020000128        0x0 USB_DEVICE/App/usb_device.o
 .data          0x0000000020000128       0x10 USB_DEVICE/App/usbd_cdc_if.o
                0x0000000020000128                USBD_Interface_fops_FS
 .data          0x0000000020000138       0x50 USB_DEVICE/App/usbd_desc.o
                0x0000000020000138                USBD_FS_DeviceDesc
                0x000000002000014c                USBD_LangIDDesc
                0x0000000020000150                USBD_StringSerial
                0x000000002000016c                FS_Desc
 .data          0x0000000020000188        0x0 USB_DEVICE/Target/usbd_conf.o
 .data          0x0000000020000188        0x0 startup/startup_stm32f407xx.o
 .data          0x0000000020000188        0x0 /opt/Atollic_TrueSTUDIO_for_STM32_x86_64_9.3.0/ARMTools/bin/../lib/gcc/arm-atollic-eabi/6.3.1/../../../../arm-atollic-eabi/lib/armv7e-m/fpu/libc.a(lib_a-errno.o)
 .data          0x0000000020000188        0x0 /opt/Atollic_TrueSTUDIO_for_STM32_x86_64_9.3.0/ARMTools/bin/../lib/gcc/arm-atollic-eabi/6.3.1/../../../../arm-atollic-eabi/lib/armv7e-m/fpu/libc.a(lib_a-impure.o)
 .data          0x0000000020000188        0x0 /opt/Atollic_TrueSTUDIO_for_STM32_x86_64_9.3.0/ARMTools/bin/../lib/gcc/arm-atollic-eabi/6.3.1/../../../../arm-atollic-eabi/lib/armv7e-m/fpu/libc.a(lib_a-init.o)
 .data          0x0000000020000188        0x0 /opt/Atollic_TrueSTUDIO_for_STM32_x86_64_9.3.0/ARMTools/bin/../lib/gcc/arm-atollic-eabi/6.3.1/../../../../arm-atollic-eabi/lib/armv7e-m/fpu/libc.a(lib_a-malloc.o)
 .data          0x0000000020000188        0x0 /opt/Atollic_TrueSTUDIO_for_STM32_x86_64_9.3.0/ARMTools/bin/../lib/gcc/arm-atollic-eabi/6.3.1/../../../../arm-atollic-eabi/lib/armv7e-m/fpu/libc.a(lib_a-mallocr.o)
 .data          0x0000000020000188        0x0 /opt/Atollic_TrueSTUDIO_for_STM32_x86_64_9.3.0/ARMTools/bin/../lib/gcc/arm-atollic-eabi/6.3.1/../../../../arm-atollic-eabi/lib/armv7e-m/fpu/libc.a(lib_a-memcpy-stub.o)
 .data          0x0000000020000188        0x0 /opt/Atollic_TrueSTUDIO_for_STM32_x86_64_9.3.0/ARMTools/bin/../lib/gcc/arm-atollic-eabi/6.3.1/../../../../arm-atollic-eabi/lib/armv7e-m/fpu/libc.a(lib_a-memset.o)
 .data          0x0000000020000188        0x0 /opt/Atollic_TrueSTUDIO_for_STM32_x86_64_9.3.0/ARMTools/bin/../lib/gcc/arm-atollic-eabi/6.3.1/../../../../arm-atollic-eabi/lib/armv7e-m/fpu/libc.a(lib_a-mlock.o)
 .data          0x0000000020000188        0x0 /opt/Atollic_TrueSTUDIO_for_STM32_x86_64_9.3.0/ARMTools/bin/../lib/gcc/arm-atollic-eabi/6.3.1/../../../../arm-atollic-eabi/lib/armv7e-m/fpu/libc.a(lib_a-sbrkr.o)
 .data          0x0000000020000188        0x0 /opt/Atollic_TrueSTUDIO_for_STM32_x86_64_9.3.0/ARMTools/bin/../lib/gcc/arm-atollic-eabi/6.3.1/../../../../arm-atollic-eabi/lib/armv7e-m/fpu/libc.a(lib_a-sprintf.o)
 .data          0x0000000020000188        0x0 /opt/Atollic_TrueSTUDIO_for_STM32_x86_64_9.3.0/ARMTools/bin/../lib/gcc/arm-atollic-eabi/6.3.1/../../../../arm-atollic-eabi/lib/armv7e-m/fpu/libc.a(lib_a-strcpy.o)
 .data          0x0000000020000188        0x0 /opt/Atollic_TrueSTUDIO_for_STM32_x86_64_9.3.0/ARMTools/bin/../lib/gcc/arm-atollic-eabi/6.3.1/../../../../arm-atollic-eabi/lib/armv7e-m/fpu/libc.a(lib_a-strlen.o)
 .data          0x0000000020000188        0x0 /opt/Atollic_TrueSTUDIO_for_STM32_x86_64_9.3.0/ARMTools/bin/../lib/gcc/arm-atollic-eabi/6.3.1/../../../../arm-atollic-eabi/lib/armv7e-m/fpu/libc.a(lib_a-svfprintf.o)
 .data          0x0000000020000188        0x0 /opt/Atollic_TrueSTUDIO_for_STM32_x86_64_9.3.0/ARMTools/bin/../lib/gcc/arm-atollic-eabi/6.3.1/../../../../arm-atollic-eabi/lib/armv7e-m/fpu/libc.a(lib_a-dtoa.o)
 .data          0x0000000020000188        0x0 /opt/Atollic_TrueSTUDIO_for_STM32_x86_64_9.3.0/ARMTools/bin/../lib/gcc/arm-atollic-eabi/6.3.1/../../../../arm-atollic-eabi/lib/armv7e-m/fpu/libc.a(lib_a-freer.o)
 .data          0x0000000020000188        0x0 /opt/Atollic_TrueSTUDIO_for_STM32_x86_64_9.3.0/ARMTools/bin/../lib/gcc/arm-atollic-eabi/6.3.1/../../../../arm-atollic-eabi/lib/armv7e-m/fpu/libc.a(lib_a-localeconv.o)
 .data          0x0000000020000188        0x0 /opt/Atollic_TrueSTUDIO_for_STM32_x86_64_9.3.0/ARMTools/bin/../lib/gcc/arm-atollic-eabi/6.3.1/../../../../arm-atollic-eabi/lib/armv7e-m/fpu/libc.a(lib_a-lock.o)
 .data          0x0000000020000188        0x0 /opt/Atollic_TrueSTUDIO_for_STM32_x86_64_9.3.0/ARMTools/bin/../lib/gcc/arm-atollic-eabi/6.3.1/../../../../arm-atollic-eabi/lib/armv7e-m/fpu/libc.a(lib_a-memchr.o)
 .data          0x0000000020000188        0x0 /opt/Atollic_TrueSTUDIO_for_STM32_x86_64_9.3.0/ARMTools/bin/../lib/gcc/arm-atollic-eabi/6.3.1/../../../../arm-atollic-eabi/lib/armv7e-m/fpu/libc.a(lib_a-mprec.o)
 .data          0x0000000020000188        0x0 /opt/Atollic_TrueSTUDIO_for_STM32_x86_64_9.3.0/ARMTools/bin/../lib/gcc/arm-atollic-eabi/6.3.1/../../../../arm-atollic-eabi/lib/armv7e-m/fpu/libc.a(lib_a-reent.o)
 .data          0x0000000020000188        0x0 /opt/Atollic_TrueSTUDIO_for_STM32_x86_64_9.3.0/ARMTools/bin/../lib/gcc/arm-atollic-eabi/6.3.1/../../../../arm-atollic-eabi/lib/armv7e-m/fpu/libc.a(lib_a-svfiprintf.o)
 .data          0x0000000020000188        0x0 /opt/Atollic_TrueSTUDIO_for_STM32_x86_64_9.3.0/ARMTools/bin/../lib/gcc/arm-atollic-eabi/6.3.1/../../../../arm-atollic-eabi/lib/armv7e-m/fpu/libc.a(lib_a-callocr.o)
 .data          0x0000000020000188        0x0 /opt/Atollic_TrueSTUDIO_for_STM32_x86_64_9.3.0/ARMTools/bin/../lib/gcc/arm-atollic-eabi/6.3.1/../../../../arm-atollic-eabi/lib/armv7e-m/fpu/libc.a(lib_a-locale.o)
 .data          0x0000000020000188        0x0 /opt/Atollic_TrueSTUDIO_for_STM32_x86_64_9.3.0/ARMTools/bin/../lib/gcc/arm-atollic-eabi/6.3.1/../../../../arm-atollic-eabi/lib/armv7e-m/fpu/libc.a(lib_a-mbtowc_r.o)
 .data          0x0000000020000188        0x0 /opt/Atollic_TrueSTUDIO_for_STM32_x86_64_9.3.0/ARMTools/bin/../lib/gcc/arm-atollic-eabi/6.3.1/../../../../arm-atollic-eabi/lib/armv7e-m/fpu/libc.a(lib_a-memmove.o)
 .data          0x0000000020000188        0x0 /opt/Atollic_TrueSTUDIO_for_STM32_x86_64_9.3.0/ARMTools/bin/../lib/gcc/arm-atollic-eabi/6.3.1/../../../../arm-atollic-eabi/lib/armv7e-m/fpu/libc.a(lib_a-reallocr.o)
 .data          0x0000000020000188        0x0 /opt/Atollic_TrueSTUDIO_for_STM32_x86_64_9.3.0/ARMTools/bin/../lib/gcc/arm-atollic-eabi/6.3.1/../../../../arm-atollic-eabi/lib/armv7e-m/fpu/libc.a(lib_a-strcmp.o)
 .data          0x0000000020000188        0x0 /opt/Atollic_TrueSTUDIO_for_STM32_x86_64_9.3.0/ARMTools/bin/../lib/gcc/arm-atollic-eabi/6.3.1/../../../../arm-atollic-eabi/lib/armv7e-m/fpu/libc.a(lib_a-wctomb_r.o)
 .data          0x0000000020000188        0x0 /opt/Atollic_TrueSTUDIO_for_STM32_x86_64_9.3.0/ARMTools/bin/../lib/gcc/arm-atollic-eabi/6.3.1/../../../../arm-atollic-eabi/lib/armv7e-m/fpu/libc.a(lib_a-ctype_.o)
 .data          0x0000000020000188        0x0 /opt/Atollic_TrueSTUDIO_for_STM32_x86_64_9.3.0/ARMTools/bin/../lib/gcc/arm-atollic-eabi/6.3.1/../../../../arm-atollic-eabi/lib/armv7e-m/fpu/libm.a(lib_a-w_sqrt.o)
 .data          0x0000000020000188        0x0 /opt/Atollic_TrueSTUDIO_for_STM32_x86_64_9.3.0/ARMTools/bin/../lib/gcc/arm-atollic-eabi/6.3.1/../../../../arm-atollic-eabi/lib/armv7e-m/fpu/libm.a(lib_a-e_sqrt.o)
 .data          0x0000000020000188        0x0 /opt/Atollic_TrueSTUDIO_for_STM32_x86_64_9.3.0/ARMTools/bin/../lib/gcc/arm-atollic-eabi/6.3.1/../../../../arm-atollic-eabi/lib/armv7e-m/fpu/libm.a(lib_a-s_lib_ver.o)
 .data          0x0000000020000188        0x0 /opt/Atollic_TrueSTUDIO_for_STM32_x86_64_9.3.0/ARMTools/bin/../lib/gcc/arm-atollic-eabi/6.3.1/../../../../arm-atollic-eabi/lib/armv7e-m/fpu/libm.a(lib_a-s_matherr.o)
 .data          0x0000000020000188        0x0 /opt/Atollic_TrueSTUDIO_for_STM32_x86_64_9.3.0/ARMTools/bin/../lib/gcc/arm-atollic-eabi/6.3.1/armv7e-m/fpu/libgcc.a(_arm_addsubdf3.o)
 .data          0x0000000020000188        0x0 /opt/Atollic_TrueSTUDIO_for_STM32_x86_64_9.3.0/ARMTools/bin/../lib/gcc/arm-atollic-eabi/6.3.1/armv7e-m/fpu/libgcc.a(_arm_muldivdf3.o)
 .data          0x0000000020000188        0x0 /opt/Atollic_TrueSTUDIO_for_STM32_x86_64_9.3.0/ARMTools/bin/../lib/gcc/arm-atollic-eabi/6.3.1/armv7e-m/fpu/libgcc.a(_arm_cmpdf2.o)
 .data          0x0000000020000188        0x0 /opt/Atollic_TrueSTUDIO_for_STM32_x86_64_9.3.0/ARMTools/bin/../lib/gcc/arm-atollic-eabi/6.3.1/armv7e-m/fpu/libgcc.a(_arm_unorddf2.o)
 .data          0x0000000020000188        0x0 /opt/Atollic_TrueSTUDIO_for_STM32_x86_64_9.3.0/ARMTools/bin/../lib/gcc/arm-atollic-eabi/6.3.1/armv7e-m/fpu/libgcc.a(_arm_fixdfsi.o)
 .data          0x0000000020000188        0x0 /opt/Atollic_TrueSTUDIO_for_STM32_x86_64_9.3.0/ARMTools/bin/../lib/gcc/arm-atollic-eabi/6.3.1/armv7e-m/fpu/libgcc.a(_aeabi_ldivmod.o)
 .data          0x0000000020000188        0x0 /opt/Atollic_TrueSTUDIO_for_STM32_x86_64_9.3.0/ARMTools/bin/../lib/gcc/arm-atollic-eabi/6.3.1/armv7e-m/fpu/libgcc.a(_aeabi_uldivmod.o)
 .data          0x0000000020000188        0x0 /opt/Atollic_TrueSTUDIO_for_STM32_x86_64_9.3.0/ARMTools/bin/../lib/gcc/arm-atollic-eabi/6.3.1/armv7e-m/fpu/libgcc.a(_udivmoddi4.o)
 .data          0x0000000020000188        0x0 /opt/Atollic_TrueSTUDIO_for_STM32_x86_64_9.3.0/ARMTools/bin/../lib/gcc/arm-atollic-eabi/6.3.1/armv7e-m/fpu/libgcc.a(_dvmd_tls.o)
 .data          0x0000000020000188        0x0 /opt/Atollic_TrueSTUDIO_for_STM32_x86_64_9.3.0/ARMTools/bin/../lib/gcc/arm-atollic-eabi/6.3.1/armv7e-m/fpu/crtend.o
 .data          0x0000000020000188        0x0 /opt/Atollic_TrueSTUDIO_for_STM32_x86_64_9.3.0/ARMTools/bin/../lib/gcc/arm-atollic-eabi/6.3.1/armv7e-m/fpu/crtn.o
 *(.data*)
 .data._impure_ptr
                0x0000000020000188        0x4 /opt/Atollic_TrueSTUDIO_for_STM32_x86_64_9.3.0/ARMTools/bin/../lib/gcc/arm-atollic-eabi/6.3.1/../../../../arm-atollic-eabi/lib/armv7e-m/fpu/libc.a(lib_a-impure.o)
                0x0000000020000188                _impure_ptr
 .data.impure_data
                0x000000002000018c       0xf0 /opt/Atollic_TrueSTUDIO_for_STM32_x86_64_9.3.0/ARMTools/bin/../lib/gcc/arm-atollic-eabi/6.3.1/../../../../arm-atollic-eabi/lib/armv7e-m/fpu/libc.a(lib_a-impure.o)
 .data.__malloc_av_
                0x000000002000027c      0x408 /opt/Atollic_TrueSTUDIO_for_STM32_x86_64_9.3.0/ARMTools/bin/../lib/gcc/arm-atollic-eabi/6.3.1/../../../../arm-atollic-eabi/lib/armv7e-m/fpu/libc.a(lib_a-mallocr.o)
                0x000000002000027c                __malloc_av_
 .data.__malloc_sbrk_base
                0x0000000020000684        0x4 /opt/Atollic_TrueSTUDIO_for_STM32_x86_64_9.3.0/ARMTools/bin/../lib/gcc/arm-atollic-eabi/6.3.1/../../../../arm-atollic-eabi/lib/armv7e-m/fpu/libc.a(lib_a-mallocr.o)
                0x0000000020000684                __malloc_sbrk_base
 .data.__malloc_trim_threshold
                0x0000000020000688        0x4 /opt/Atollic_TrueSTUDIO_for_STM32_x86_64_9.3.0/ARMTools/bin/../lib/gcc/arm-atollic-eabi/6.3.1/../../../../arm-atollic-eabi/lib/armv7e-m/fpu/libc.a(lib_a-mallocr.o)
                0x0000000020000688                __malloc_trim_threshold
 .data.__global_locale
                0x000000002000068c      0x16c /opt/Atollic_TrueSTUDIO_for_STM32_x86_64_9.3.0/ARMTools/bin/../lib/gcc/arm-atollic-eabi/6.3.1/../../../../arm-atollic-eabi/lib/armv7e-m/fpu/libc.a(lib_a-locale.o)
                0x000000002000068c                __global_locale
 .data.__fdlib_version
                0x00000000200007f8        0x1 /opt/Atollic_TrueSTUDIO_for_STM32_x86_64_9.3.0/ARMTools/bin/../lib/gcc/arm-atollic-eabi/6.3.1/../../../../arm-atollic-eabi/lib/armv7e-m/fpu/libm.a(lib_a-s_lib_ver.o)
                0x00000000200007f8                __fdlib_version
                0x00000000200007fc                . = ALIGN (0x4)
 *fill*         0x00000000200007f9        0x3 
                0x00000000200007fc                _edata = .
                0x000000000801da18                _siccmram = LOADADDR (.ccmram)

.igot.plt       0x00000000200007fc        0x0 load address 0x000000000801da18
 .igot.plt      0x00000000200007fc        0x0 /opt/Atollic_TrueSTUDIO_for_STM32_x86_64_9.3.0/ARMTools/bin/../lib/gcc/arm-atollic-eabi/6.3.1/armv7e-m/fpu/crtbegin.o

.ccmram         0x0000000010000000        0x0 load address 0x000000000801da18
                0x0000000010000000                . = ALIGN (0x4)
                0x0000000010000000                _sccmram = .
 *(.ccmram)
 *(.ccmram*)
                0x0000000010000000                . = ALIGN (0x4)
                0x0000000010000000                _eccmram = .
                0x0000000010000000                . = ALIGN (0x4)

.bss            0x00000000200007fc     0x6854
                0x00000000200007fc                _sbss = .
                0x00000000200007fc                __bss_start__ = _sbss
 *(.bss)
 .bss           0x00000000200007fc        0x0 /opt/Atollic_TrueSTUDIO_for_STM32_x86_64_9.3.0/ARMTools/bin/../lib/gcc/arm-atollic-eabi/6.3.1/armv7e-m/fpu/crti.o
 .bss           0x00000000200007fc       0x1c /opt/Atollic_TrueSTUDIO_for_STM32_x86_64_9.3.0/ARMTools/bin/../lib/gcc/arm-atollic-eabi/6.3.1/armv7e-m/fpu/crtbegin.o
 .bss           0x0000000020000818        0x0 Core/src/adc.o
 .bss           0x0000000020000818        0x0 Core/src/can.o
 .bss           0x0000000020000818        0x0 Core/src/dac.o
 .bss           0x0000000020000818        0x0 Core/src/dma.o
 .bss           0x0000000020000818        0x0 Core/src/freertos.o
 .bss           0x0000000020000818        0x0 Core/src/gpio.o
 .bss           0x0000000020000818        0x0 Core/src/i2c.o
 .bss           0x0000000020000818        0x0 Core/src/main.o
 .bss           0x0000000020000818        0x0 Core/src/stm32f4xx_hal_msp.o
 .bss           0x0000000020000818        0x0 Core/src/stm32f4xx_hal_timebase_tim.o
 .bss           0x0000000020000818        0x0 Core/src/stm32f4xx_it.o
 .bss           0x0000000020000818        0x8 Core/src/syscalls.o
                0x000000002000081c                __env
 .bss           0x0000000020000820        0x0 Core/src/system_stm32f4xx.o
 .bss           0x0000000020000820        0x0 Core/src/tim.o
 .bss           0x0000000020000820        0x0 Drivers/STM32F4xx_HAL_Driver/Src/stm32f4xx_hal.o
 .bss           0x0000000020000820        0x0 Drivers/STM32F4xx_HAL_Driver/Src/stm32f4xx_hal_adc.o
 .bss           0x0000000020000820        0x0 Drivers/STM32F4xx_HAL_Driver/Src/stm32f4xx_hal_adc_ex.o
 .bss           0x0000000020000820        0x0 Drivers/STM32F4xx_HAL_Driver/Src/stm32f4xx_hal_can.o
 .bss           0x0000000020000820        0x0 Drivers/STM32F4xx_HAL_Driver/Src/stm32f4xx_hal_cortex.o
 .bss           0x0000000020000820        0x0 Drivers/STM32F4xx_HAL_Driver/Src/stm32f4xx_hal_dac.o
 .bss           0x0000000020000820        0x0 Drivers/STM32F4xx_HAL_Driver/Src/stm32f4xx_hal_dac_ex.o
 .bss           0x0000000020000820        0x0 Drivers/STM32F4xx_HAL_Driver/Src/stm32f4xx_hal_dma.o
 .bss           0x0000000020000820        0x0 Drivers/STM32F4xx_HAL_Driver/Src/stm32f4xx_hal_dma_ex.o
 .bss           0x0000000020000820        0x0 Drivers/STM32F4xx_HAL_Driver/Src/stm32f4xx_hal_exti.o
 .bss           0x0000000020000820        0x0 Drivers/STM32F4xx_HAL_Driver/Src/stm32f4xx_hal_flash.o
 .bss           0x0000000020000820        0x0 Drivers/STM32F4xx_HAL_Driver/Src/stm32f4xx_hal_flash_ex.o
 .bss           0x0000000020000820        0x0 Drivers/STM32F4xx_HAL_Driver/Src/stm32f4xx_hal_flash_ramfunc.o
 .bss           0x0000000020000820        0x0 Drivers/STM32F4xx_HAL_Driver/Src/stm32f4xx_hal_gpio.o
 .bss           0x0000000020000820        0x0 Drivers/STM32F4xx_HAL_Driver/Src/stm32f4xx_hal_i2c.o
 .bss           0x0000000020000820        0x0 Drivers/STM32F4xx_HAL_Driver/Src/stm32f4xx_hal_i2c_ex.o
 .bss           0x0000000020000820        0x0 Drivers/STM32F4xx_HAL_Driver/Src/stm32f4xx_hal_pcd.o
 .bss           0x0000000020000820        0x0 Drivers/STM32F4xx_HAL_Driver/Src/stm32f4xx_hal_pcd_ex.o
 .bss           0x0000000020000820        0x0 Drivers/STM32F4xx_HAL_Driver/Src/stm32f4xx_hal_pwr.o
 .bss           0x0000000020000820        0x0 Drivers/STM32F4xx_HAL_Driver/Src/stm32f4xx_hal_pwr_ex.o
 .bss           0x0000000020000820        0x0 Drivers/STM32F4xx_HAL_Driver/Src/stm32f4xx_hal_rcc.o
 .bss           0x0000000020000820        0x0 Drivers/STM32F4xx_HAL_Driver/Src/stm32f4xx_hal_rcc_ex.o
 .bss           0x0000000020000820        0x0 Drivers/STM32F4xx_HAL_Driver/Src/stm32f4xx_hal_tim.o
 .bss           0x0000000020000820        0x0 Drivers/STM32F4xx_HAL_Driver/Src/stm32f4xx_hal_tim_ex.o
 .bss           0x0000000020000820        0x4 Drivers/STM32F4xx_HAL_Driver/Src/stm32f4xx_ll_usb.o
 .bss           0x0000000020000824        0x0 Middlewares/ST/STM32_USB_Device_Library/Class/CDC/Src/usbd_cdc.o
 .bss           0x0000000020000824        0x0 Middlewares/ST/STM32_USB_Device_Library/Core/Src/usbd_core.o
 .bss           0x0000000020000824        0x1 Middlewares/ST/STM32_USB_Device_Library/Core/Src/usbd_ctlreq.o
 .bss           0x0000000020000825        0x0 Middlewares/ST/STM32_USB_Device_Library/Core/Src/usbd_ioreq.o
 *fill*         0x0000000020000825        0x3 
 .bss           0x0000000020000828      0xccc Middlewares/Third_Party/FreeRTOS/Source/CMSIS_RTOS_V2/cmsis_os2.o
 .bss           0x00000000200014f4        0x0 Middlewares/Third_Party/FreeRTOS/Source/croutine.o
 .bss           0x00000000200014f4        0x0 Middlewares/Third_Party/FreeRTOS/Source/event_groups.o
 .bss           0x00000000200014f4        0x0 Middlewares/Third_Party/FreeRTOS/Source/list.o
 .bss           0x00000000200014f4        0x8 Middlewares/Third_Party/FreeRTOS/Source/portable/GCC/ARM_CM4F/port.o
 .bss           0x00000000200014fc     0x4018 Middlewares/Third_Party/FreeRTOS/Source/portable/MemMang/heap_4.o
 .bss           0x0000000020005514        0x0 Middlewares/Third_Party/FreeRTOS/Source/queue.o
 .bss           0x0000000020005514        0x0 Middlewares/Third_Party/FreeRTOS/Source/stream_buffer.o
 .bss           0x0000000020005514      0x500 Middlewares/Third_Party/FreeRTOS/Source/tasks.o
                0x00000000200059e8                pxCurrentTCB
 .bss           0x0000000020005a14      0x12c Middlewares/Third_Party/FreeRTOS/Source/timers.o
 .bss           0x0000000020005b40        0x0 Source/Tasks/analog.o
 .bss           0x0000000020005b40        0x0 Source/Tasks/communication.o
 .bss           0x0000000020005b40        0x0 Source/Timers/envelope.o
 .bss           0x0000000020005b40        0x0 Source/Timers/heartbeat.o
 .bss           0x0000000020005b40        0x0 Source/bmp280.o
 .bss           0x0000000020005b40        0x0 Source/config.o
 .bss           0x0000000020005b40        0x0 Source/crc32.o
 .bss           0x0000000020005b40        0x0 Source/debug.o
 .bss           0x0000000020005b40        0x0 Source/hub.o
 .bss           0x0000000020005b40        0x0 Source/hx711.o
 .bss           0x0000000020005b40        0x0 Source/stepper.o
 .bss           0x0000000020005b40        0x0 USB_DEVICE/App/usb_device.o
 .bss           0x0000000020005b40        0x0 USB_DEVICE/App/usbd_cdc_if.o
 .bss           0x0000000020005b40        0x0 USB_DEVICE/App/usbd_desc.o
 .bss           0x0000000020005b40        0x0 USB_DEVICE/Target/usbd_conf.o
 .bss           0x0000000020005b40        0x0 startup/startup_stm32f407xx.o
 .bss           0x0000000020005b40        0x0 /opt/Atollic_TrueSTUDIO_for_STM32_x86_64_9.3.0/ARMTools/bin/../lib/gcc/arm-atollic-eabi/6.3.1/../../../../arm-atollic-eabi/lib/armv7e-m/fpu/libc.a(lib_a-errno.o)
 .bss           0x0000000020005b40        0x0 /opt/Atollic_TrueSTUDIO_for_STM32_x86_64_9.3.0/ARMTools/bin/../lib/gcc/arm-atollic-eabi/6.3.1/../../../../arm-atollic-eabi/lib/armv7e-m/fpu/libc.a(lib_a-impure.o)
 .bss           0x0000000020005b40        0x0 /opt/Atollic_TrueSTUDIO_for_STM32_x86_64_9.3.0/ARMTools/bin/../lib/gcc/arm-atollic-eabi/6.3.1/../../../../arm-atollic-eabi/lib/armv7e-m/fpu/libc.a(lib_a-init.o)
 .bss           0x0000000020005b40        0x0 /opt/Atollic_TrueSTUDIO_for_STM32_x86_64_9.3.0/ARMTools/bin/../lib/gcc/arm-atollic-eabi/6.3.1/../../../../arm-atollic-eabi/lib/armv7e-m/fpu/libc.a(lib_a-malloc.o)
 .bss           0x0000000020005b40        0x0 /opt/Atollic_TrueSTUDIO_for_STM32_x86_64_9.3.0/ARMTools/bin/../lib/gcc/arm-atollic-eabi/6.3.1/../../../../arm-atollic-eabi/lib/armv7e-m/fpu/libc.a(lib_a-mallocr.o)
 .bss           0x0000000020005b40        0x0 /opt/Atollic_TrueSTUDIO_for_STM32_x86_64_9.3.0/ARMTools/bin/../lib/gcc/arm-atollic-eabi/6.3.1/../../../../arm-atollic-eabi/lib/armv7e-m/fpu/libc.a(lib_a-memcpy-stub.o)
 .bss           0x0000000020005b40        0x0 /opt/Atollic_TrueSTUDIO_for_STM32_x86_64_9.3.0/ARMTools/bin/../lib/gcc/arm-atollic-eabi/6.3.1/../../../../arm-atollic-eabi/lib/armv7e-m/fpu/libc.a(lib_a-memset.o)
 .bss           0x0000000020005b40        0x0 /opt/Atollic_TrueSTUDIO_for_STM32_x86_64_9.3.0/ARMTools/bin/../lib/gcc/arm-atollic-eabi/6.3.1/../../../../arm-atollic-eabi/lib/armv7e-m/fpu/libc.a(lib_a-mlock.o)
 .bss           0x0000000020005b40        0x0 /opt/Atollic_TrueSTUDIO_for_STM32_x86_64_9.3.0/ARMTools/bin/../lib/gcc/arm-atollic-eabi/6.3.1/../../../../arm-atollic-eabi/lib/armv7e-m/fpu/libc.a(lib_a-sbrkr.o)
 .bss           0x0000000020005b40        0x0 /opt/Atollic_TrueSTUDIO_for_STM32_x86_64_9.3.0/ARMTools/bin/../lib/gcc/arm-atollic-eabi/6.3.1/../../../../arm-atollic-eabi/lib/armv7e-m/fpu/libc.a(lib_a-sprintf.o)
 .bss           0x0000000020005b40        0x0 /opt/Atollic_TrueSTUDIO_for_STM32_x86_64_9.3.0/ARMTools/bin/../lib/gcc/arm-atollic-eabi/6.3.1/../../../../arm-atollic-eabi/lib/armv7e-m/fpu/libc.a(lib_a-strcpy.o)
 .bss           0x0000000020005b40        0x0 /opt/Atollic_TrueSTUDIO_for_STM32_x86_64_9.3.0/ARMTools/bin/../lib/gcc/arm-atollic-eabi/6.3.1/../../../../arm-atollic-eabi/lib/armv7e-m/fpu/libc.a(lib_a-strlen.o)
 .bss           0x0000000020005b40        0x0 /opt/Atollic_TrueSTUDIO_for_STM32_x86_64_9.3.0/ARMTools/bin/../lib/gcc/arm-atollic-eabi/6.3.1/../../../../arm-atollic-eabi/lib/armv7e-m/fpu/libc.a(lib_a-svfprintf.o)
 .bss           0x0000000020005b40        0x0 /opt/Atollic_TrueSTUDIO_for_STM32_x86_64_9.3.0/ARMTools/bin/../lib/gcc/arm-atollic-eabi/6.3.1/../../../../arm-atollic-eabi/lib/armv7e-m/fpu/libc.a(lib_a-dtoa.o)
 .bss           0x0000000020005b40        0x0 /opt/Atollic_TrueSTUDIO_for_STM32_x86_64_9.3.0/ARMTools/bin/../lib/gcc/arm-atollic-eabi/6.3.1/../../../../arm-atollic-eabi/lib/armv7e-m/fpu/libc.a(lib_a-freer.o)
 .bss           0x0000000020005b40        0x0 /opt/Atollic_TrueSTUDIO_for_STM32_x86_64_9.3.0/ARMTools/bin/../lib/gcc/arm-atollic-eabi/6.3.1/../../../../arm-atollic-eabi/lib/armv7e-m/fpu/libc.a(lib_a-localeconv.o)
 .bss           0x0000000020005b40        0x0 /opt/Atollic_TrueSTUDIO_for_STM32_x86_64_9.3.0/ARMTools/bin/../lib/gcc/arm-atollic-eabi/6.3.1/../../../../arm-atollic-eabi/lib/armv7e-m/fpu/libc.a(lib_a-lock.o)
 .bss           0x0000000020005b40        0x0 /opt/Atollic_TrueSTUDIO_for_STM32_x86_64_9.3.0/ARMTools/bin/../lib/gcc/arm-atollic-eabi/6.3.1/../../../../arm-atollic-eabi/lib/armv7e-m/fpu/libc.a(lib_a-memchr.o)
 .bss           0x0000000020005b40        0x0 /opt/Atollic_TrueSTUDIO_for_STM32_x86_64_9.3.0/ARMTools/bin/../lib/gcc/arm-atollic-eabi/6.3.1/../../../../arm-atollic-eabi/lib/armv7e-m/fpu/libc.a(lib_a-mprec.o)
 .bss           0x0000000020005b40        0x0 /opt/Atollic_TrueSTUDIO_for_STM32_x86_64_9.3.0/ARMTools/bin/../lib/gcc/arm-atollic-eabi/6.3.1/../../../../arm-atollic-eabi/lib/armv7e-m/fpu/libc.a(lib_a-reent.o)
 .bss           0x0000000020005b40        0x0 /opt/Atollic_TrueSTUDIO_for_STM32_x86_64_9.3.0/ARMTools/bin/../lib/gcc/arm-atollic-eabi/6.3.1/../../../../arm-atollic-eabi/lib/armv7e-m/fpu/libc.a(lib_a-svfiprintf.o)
 .bss           0x0000000020005b40        0x0 /opt/Atollic_TrueSTUDIO_for_STM32_x86_64_9.3.0/ARMTools/bin/../lib/gcc/arm-atollic-eabi/6.3.1/../../../../arm-atollic-eabi/lib/armv7e-m/fpu/libc.a(lib_a-callocr.o)
 .bss           0x0000000020005b40        0x0 /opt/Atollic_TrueSTUDIO_for_STM32_x86_64_9.3.0/ARMTools/bin/../lib/gcc/arm-atollic-eabi/6.3.1/../../../../arm-atollic-eabi/lib/armv7e-m/fpu/libc.a(lib_a-locale.o)
 .bss           0x0000000020005b40        0x0 /opt/Atollic_TrueSTUDIO_for_STM32_x86_64_9.3.0/ARMTools/bin/../lib/gcc/arm-atollic-eabi/6.3.1/../../../../arm-atollic-eabi/lib/armv7e-m/fpu/libc.a(lib_a-mbtowc_r.o)
 .bss           0x0000000020005b40        0x0 /opt/Atollic_TrueSTUDIO_for_STM32_x86_64_9.3.0/ARMTools/bin/../lib/gcc/arm-atollic-eabi/6.3.1/../../../../arm-atollic-eabi/lib/armv7e-m/fpu/libc.a(lib_a-memmove.o)
 .bss           0x0000000020005b40        0x0 /opt/Atollic_TrueSTUDIO_for_STM32_x86_64_9.3.0/ARMTools/bin/../lib/gcc/arm-atollic-eabi/6.3.1/../../../../arm-atollic-eabi/lib/armv7e-m/fpu/libc.a(lib_a-reallocr.o)
 .bss           0x0000000020005b40        0x0 /opt/Atollic_TrueSTUDIO_for_STM32_x86_64_9.3.0/ARMTools/bin/../lib/gcc/arm-atollic-eabi/6.3.1/../../../../arm-atollic-eabi/lib/armv7e-m/fpu/libc.a(lib_a-strcmp.o)
 .bss           0x0000000020005b40        0x0 /opt/Atollic_TrueSTUDIO_for_STM32_x86_64_9.3.0/ARMTools/bin/../lib/gcc/arm-atollic-eabi/6.3.1/../../../../arm-atollic-eabi/lib/armv7e-m/fpu/libc.a(lib_a-wctomb_r.o)
 .bss           0x0000000020005b40        0x0 /opt/Atollic_TrueSTUDIO_for_STM32_x86_64_9.3.0/ARMTools/bin/../lib/gcc/arm-atollic-eabi/6.3.1/../../../../arm-atollic-eabi/lib/armv7e-m/fpu/libc.a(lib_a-ctype_.o)
 .bss           0x0000000020005b40        0x0 /opt/Atollic_TrueSTUDIO_for_STM32_x86_64_9.3.0/ARMTools/bin/../lib/gcc/arm-atollic-eabi/6.3.1/../../../../arm-atollic-eabi/lib/armv7e-m/fpu/libm.a(lib_a-w_sqrt.o)
 .bss           0x0000000020005b40        0x0 /opt/Atollic_TrueSTUDIO_for_STM32_x86_64_9.3.0/ARMTools/bin/../lib/gcc/arm-atollic-eabi/6.3.1/../../../../arm-atollic-eabi/lib/armv7e-m/fpu/libm.a(lib_a-e_sqrt.o)
 .bss           0x0000000020005b40        0x0 /opt/Atollic_TrueSTUDIO_for_STM32_x86_64_9.3.0/ARMTools/bin/../lib/gcc/arm-atollic-eabi/6.3.1/../../../../arm-atollic-eabi/lib/armv7e-m/fpu/libm.a(lib_a-s_lib_ver.o)
 .bss           0x0000000020005b40        0x0 /opt/Atollic_TrueSTUDIO_for_STM32_x86_64_9.3.0/ARMTools/bin/../lib/gcc/arm-atollic-eabi/6.3.1/../../../../arm-atollic-eabi/lib/armv7e-m/fpu/libm.a(lib_a-s_matherr.o)
 .bss           0x0000000020005b40        0x0 /opt/Atollic_TrueSTUDIO_for_STM32_x86_64_9.3.0/ARMTools/bin/../lib/gcc/arm-atollic-eabi/6.3.1/armv7e-m/fpu/libgcc.a(_arm_addsubdf3.o)
 .bss           0x0000000020005b40        0x0 /opt/Atollic_TrueSTUDIO_for_STM32_x86_64_9.3.0/ARMTools/bin/../lib/gcc/arm-atollic-eabi/6.3.1/armv7e-m/fpu/libgcc.a(_arm_muldivdf3.o)
 .bss           0x0000000020005b40        0x0 /opt/Atollic_TrueSTUDIO_for_STM32_x86_64_9.3.0/ARMTools/bin/../lib/gcc/arm-atollic-eabi/6.3.1/armv7e-m/fpu/libgcc.a(_arm_cmpdf2.o)
 .bss           0x0000000020005b40        0x0 /opt/Atollic_TrueSTUDIO_for_STM32_x86_64_9.3.0/ARMTools/bin/../lib/gcc/arm-atollic-eabi/6.3.1/armv7e-m/fpu/libgcc.a(_arm_unorddf2.o)
 .bss           0x0000000020005b40        0x0 /opt/Atollic_TrueSTUDIO_for_STM32_x86_64_9.3.0/ARMTools/bin/../lib/gcc/arm-atollic-eabi/6.3.1/armv7e-m/fpu/libgcc.a(_arm_fixdfsi.o)
 .bss           0x0000000020005b40        0x0 /opt/Atollic_TrueSTUDIO_for_STM32_x86_64_9.3.0/ARMTools/bin/../lib/gcc/arm-atollic-eabi/6.3.1/armv7e-m/fpu/libgcc.a(_aeabi_ldivmod.o)
 .bss           0x0000000020005b40        0x0 /opt/Atollic_TrueSTUDIO_for_STM32_x86_64_9.3.0/ARMTools/bin/../lib/gcc/arm-atollic-eabi/6.3.1/armv7e-m/fpu/libgcc.a(_aeabi_uldivmod.o)
 .bss           0x0000000020005b40        0x0 /opt/Atollic_TrueSTUDIO_for_STM32_x86_64_9.3.0/ARMTools/bin/../lib/gcc/arm-atollic-eabi/6.3.1/armv7e-m/fpu/libgcc.a(_udivmoddi4.o)
 .bss           0x0000000020005b40        0x0 /opt/Atollic_TrueSTUDIO_for_STM32_x86_64_9.3.0/ARMTools/bin/../lib/gcc/arm-atollic-eabi/6.3.1/armv7e-m/fpu/libgcc.a(_dvmd_tls.o)
 .bss           0x0000000020005b40        0x0 /opt/Atollic_TrueSTUDIO_for_STM32_x86_64_9.3.0/ARMTools/bin/../lib/gcc/arm-atollic-eabi/6.3.1/armv7e-m/fpu/crtend.o
 .bss           0x0000000020005b40        0x0 /opt/Atollic_TrueSTUDIO_for_STM32_x86_64_9.3.0/ARMTools/bin/../lib/gcc/arm-atollic-eabi/6.3.1/armv7e-m/fpu/crtn.o
 *(.bss*)
 .bss.__malloc_current_mallinfo
                0x0000000020005b40       0x28 /opt/Atollic_TrueSTUDIO_for_STM32_x86_64_9.3.0/ARMTools/bin/../lib/gcc/arm-atollic-eabi/6.3.1/../../../../arm-atollic-eabi/lib/armv7e-m/fpu/libc.a(lib_a-mallocr.o)
                0x0000000020005b40                __malloc_current_mallinfo
 .bss.__malloc_max_sbrked_mem
                0x0000000020005b68        0x4 /opt/Atollic_TrueSTUDIO_for_STM32_x86_64_9.3.0/ARMTools/bin/../lib/gcc/arm-atollic-eabi/6.3.1/../../../../arm-atollic-eabi/lib/armv7e-m/fpu/libc.a(lib_a-mallocr.o)
                0x0000000020005b68                __malloc_max_sbrked_mem
 .bss.__malloc_max_total_mem
                0x0000000020005b6c        0x4 /opt/Atollic_TrueSTUDIO_for_STM32_x86_64_9.3.0/ARMTools/bin/../lib/gcc/arm-atollic-eabi/6.3.1/../../../../arm-atollic-eabi/lib/armv7e-m/fpu/libc.a(lib_a-mallocr.o)
                0x0000000020005b6c                __malloc_max_total_mem
 .bss.__malloc_top_pad
                0x0000000020005b70        0x4 /opt/Atollic_TrueSTUDIO_for_STM32_x86_64_9.3.0/ARMTools/bin/../lib/gcc/arm-atollic-eabi/6.3.1/../../../../arm-atollic-eabi/lib/armv7e-m/fpu/libc.a(lib_a-mallocr.o)
                0x0000000020005b70                __malloc_top_pad
 .bss._PathLocale
                0x0000000020005b74        0x4 /opt/Atollic_TrueSTUDIO_for_STM32_x86_64_9.3.0/ARMTools/bin/../lib/gcc/arm-atollic-eabi/6.3.1/../../../../arm-atollic-eabi/lib/armv7e-m/fpu/libc.a(lib_a-locale.o)
                0x0000000020005b74                _PathLocale
 *(COMMON)
 COMMON         0x0000000020005b78       0xc0 Core/src/adc.o
                0x0000000020005b78                hadc1
                0x0000000020005bc0                ADCBuffer
                0x0000000020005bd8                hdma_adc1
 COMMON         0x0000000020005c38       0x28 Core/src/can.o
                0x0000000020005c38                hcan1
 COMMON         0x0000000020005c60       0x14 Core/src/dac.o
                0x0000000020005c60                hdac
 COMMON         0x0000000020005c74       0x18 Core/src/freertos.o
                0x0000000020005c74                heartBeatTimerHandle
                0x0000000020005c78                envelopeTimeoutTimerHandle
                0x0000000020005c7c                DefaultHandle
                0x0000000020005c80                hubWatchDogTimerHandle
                0x0000000020005c84                communicationHandle
                0x0000000020005c88                analogHandle
 COMMON         0x0000000020005c8c       0x54 Core/src/i2c.o
                0x0000000020005c8c                hi2c1
 COMMON         0x0000000020005ce0       0x88 Core/src/main.o
                0x0000000020005ce0                stp
                0x0000000020005d14                status
 COMMON         0x0000000020005d68       0x40 Core/src/stm32f4xx_hal_timebase_tim.o
                0x0000000020005d68                htim6
 COMMON         0x0000000020005da8      0x100 Core/src/tim.o
                0x0000000020005da8                htim8
                0x0000000020005de8                htim5
                0x0000000020005e28                htim1
                0x0000000020005e68                htim2
 COMMON         0x0000000020005ea8        0x4 Drivers/STM32F4xx_HAL_Driver/Src/stm32f4xx_hal.o
                0x0000000020005ea8                uwTick
 COMMON         0x0000000020005eac       0x20 Drivers/STM32F4xx_HAL_Driver/Src/stm32f4xx_hal_flash.o
                0x0000000020005eac                pFlash
 COMMON         0x0000000020005ecc       0x40 Middlewares/Third_Party/FreeRTOS/Source/queue.o
                0x0000000020005ecc                xQueueRegistry
 COMMON         0x0000000020005f0c      0x464 Source/Tasks/communication.o
                0x0000000020005f0c                packet
                0x0000000020006328                FIFO
 COMMON         0x0000000020006370       0x34 Source/bmp280.o
                0x0000000020006370                bmp280
 COMMON         0x00000000200063a4       0x64 Source/config.o
                0x00000000200063a4                config
 COMMON         0x0000000020006408       0x44 Source/hub.o
                0x0000000020006408                msw
                0x000000002000640c                hub
 COMMON         0x000000002000644c       0x80 Source/hx711.o
                0x000000002000644c                hx
 COMMON         0x00000000200064cc       0xd0 Source/stepper.o
                0x00000000200064cc                stepper
 COMMON         0x000000002000659c      0x29c USB_DEVICE/App/usb_device.o
                0x000000002000659c                hUsbDeviceFS
 COMMON         0x0000000020006838      0x200 USB_DEVICE/App/usbd_cdc_if.o
                0x0000000020006838                UserRxBufferFS
                0x0000000020006938                UserTxBufferFS
 COMMON         0x0000000020006a38      0x200 USB_DEVICE/App/usbd_desc.o
                0x0000000020006a38                USBD_StrDesc
 COMMON         0x0000000020006c38      0x408 USB_DEVICE/Target/usbd_conf.o
                0x0000000020006c38                hpcd_USB_OTG_FS
 COMMON         0x0000000020007040        0x9 /opt/Atollic_TrueSTUDIO_for_STM32_x86_64_9.3.0/ARMTools/bin/../lib/gcc/arm-atollic-eabi/6.3.1/../../../../arm-atollic-eabi/lib/armv7e-m/fpu/libc.a(lib_a-lock.o)
                0x0000000020007040                __lock___atexit_recursive_mutex
                0x0000000020007041                __lock___arc4random_mutex
                0x0000000020007042                __lock___env_recursive_mutex
                0x0000000020007043                __lock___sinit_recursive_mutex
                0x0000000020007044                __lock___malloc_recursive_mutex
                0x0000000020007045                __lock___at_quick_exit_mutex
                0x0000000020007046                __lock___dd_hash_mutex
                0x0000000020007047                __lock___tz_mutex
                0x0000000020007048                __lock___sfp_recursive_mutex
 *fill*         0x0000000020007049        0x3 
 COMMON         0x000000002000704c        0x4 /opt/Atollic_TrueSTUDIO_for_STM32_x86_64_9.3.0/ARMTools/bin/../lib/gcc/arm-atollic-eabi/6.3.1/../../../../arm-atollic-eabi/lib/armv7e-m/fpu/libc.a(lib_a-reent.o)
                0x000000002000704c                errno
                0x0000000020007050                . = ALIGN (0x4)
                0x0000000020007050                _ebss = .
                0x0000000020007050                __bss_end__ = _ebss

._user_heap_stack
                0x0000000020007050      0x700
                0x0000000020007050                . = ALIGN (0x4)
                0x0000000020007050                PROVIDE (end, .)
                [!provide]                        PROVIDE (_end, .)
                0x0000000020007350                . = (. + _Min_Heap_Size)
 *fill*         0x0000000020007050      0x300 
                0x0000000020007750                . = (. + _Min_Stack_Size)
 *fill*         0x0000000020007350      0x400 
                0x0000000020007750                . = ALIGN (0x4)

/DISCARD/
 libc.a(*)
 libm.a(*)
 libgcc.a(*)

.ARM.attributes
                0x0000000000000000       0x30
 *(.ARM.attributes)
 .ARM.attributes
                0x0000000000000000       0x22 /opt/Atollic_TrueSTUDIO_for_STM32_x86_64_9.3.0/ARMTools/bin/../lib/gcc/arm-atollic-eabi/6.3.1/armv7e-m/fpu/crti.o
 .ARM.attributes
                0x0000000000000022       0x34 /opt/Atollic_TrueSTUDIO_for_STM32_x86_64_9.3.0/ARMTools/bin/../lib/gcc/arm-atollic-eabi/6.3.1/armv7e-m/fpu/crtbegin.o
 .ARM.attributes
                0x0000000000000056       0x39 Core/src/adc.o
 .ARM.attributes
                0x000000000000008f       0x39 Core/src/can.o
 .ARM.attributes
                0x00000000000000c8       0x39 Core/src/dac.o
 .ARM.attributes
                0x0000000000000101       0x39 Core/src/dma.o
 .ARM.attributes
                0x000000000000013a       0x39 Core/src/freertos.o
 .ARM.attributes
                0x0000000000000173       0x39 Core/src/gpio.o
 .ARM.attributes
                0x00000000000001ac       0x39 Core/src/i2c.o
 .ARM.attributes
                0x00000000000001e5       0x39 Core/src/main.o
 .ARM.attributes
                0x000000000000021e       0x39 Core/src/stm32f4xx_hal_msp.o
 .ARM.attributes
                0x0000000000000257       0x39 Core/src/stm32f4xx_hal_timebase_tim.o
 .ARM.attributes
                0x0000000000000290       0x39 Core/src/stm32f4xx_it.o
 .ARM.attributes
                0x00000000000002c9       0x39 Core/src/syscalls.o
 .ARM.attributes
                0x0000000000000302       0x39 Core/src/system_stm32f4xx.o
 .ARM.attributes
                0x000000000000033b       0x39 Core/src/tim.o
 .ARM.attributes
                0x0000000000000374       0x39 Drivers/STM32F4xx_HAL_Driver/Src/stm32f4xx_hal.o
 .ARM.attributes
                0x00000000000003ad       0x39 Drivers/STM32F4xx_HAL_Driver/Src/stm32f4xx_hal_adc.o
 .ARM.attributes
                0x00000000000003e6       0x39 Drivers/STM32F4xx_HAL_Driver/Src/stm32f4xx_hal_adc_ex.o
 .ARM.attributes
                0x000000000000041f       0x39 Drivers/STM32F4xx_HAL_Driver/Src/stm32f4xx_hal_can.o
 .ARM.attributes
                0x0000000000000458       0x39 Drivers/STM32F4xx_HAL_Driver/Src/stm32f4xx_hal_cortex.o
 .ARM.attributes
                0x0000000000000491       0x39 Drivers/STM32F4xx_HAL_Driver/Src/stm32f4xx_hal_dac.o
 .ARM.attributes
                0x00000000000004ca       0x39 Drivers/STM32F4xx_HAL_Driver/Src/stm32f4xx_hal_dac_ex.o
 .ARM.attributes
                0x0000000000000503       0x39 Drivers/STM32F4xx_HAL_Driver/Src/stm32f4xx_hal_dma.o
 .ARM.attributes
                0x000000000000053c       0x39 Drivers/STM32F4xx_HAL_Driver/Src/stm32f4xx_hal_dma_ex.o
 .ARM.attributes
                0x0000000000000575       0x39 Drivers/STM32F4xx_HAL_Driver/Src/stm32f4xx_hal_exti.o
 .ARM.attributes
                0x00000000000005ae       0x39 Drivers/STM32F4xx_HAL_Driver/Src/stm32f4xx_hal_flash.o
 .ARM.attributes
                0x00000000000005e7       0x39 Drivers/STM32F4xx_HAL_Driver/Src/stm32f4xx_hal_flash_ex.o
 .ARM.attributes
                0x0000000000000620       0x39 Drivers/STM32F4xx_HAL_Driver/Src/stm32f4xx_hal_flash_ramfunc.o
 .ARM.attributes
                0x0000000000000659       0x39 Drivers/STM32F4xx_HAL_Driver/Src/stm32f4xx_hal_gpio.o
 .ARM.attributes
                0x0000000000000692       0x39 Drivers/STM32F4xx_HAL_Driver/Src/stm32f4xx_hal_i2c.o
 .ARM.attributes
                0x00000000000006cb       0x39 Drivers/STM32F4xx_HAL_Driver/Src/stm32f4xx_hal_i2c_ex.o
 .ARM.attributes
                0x0000000000000704       0x39 Drivers/STM32F4xx_HAL_Driver/Src/stm32f4xx_hal_pcd.o
 .ARM.attributes
                0x000000000000073d       0x39 Drivers/STM32F4xx_HAL_Driver/Src/stm32f4xx_hal_pcd_ex.o
 .ARM.attributes
                0x0000000000000776       0x39 Drivers/STM32F4xx_HAL_Driver/Src/stm32f4xx_hal_pwr.o
 .ARM.attributes
                0x00000000000007af       0x39 Drivers/STM32F4xx_HAL_Driver/Src/stm32f4xx_hal_pwr_ex.o
 .ARM.attributes
                0x00000000000007e8       0x39 Drivers/STM32F4xx_HAL_Driver/Src/stm32f4xx_hal_rcc.o
 .ARM.attributes
                0x0000000000000821       0x39 Drivers/STM32F4xx_HAL_Driver/Src/stm32f4xx_hal_rcc_ex.o
 .ARM.attributes
                0x000000000000085a       0x39 Drivers/STM32F4xx_HAL_Driver/Src/stm32f4xx_hal_tim.o
 .ARM.attributes
                0x0000000000000893       0x39 Drivers/STM32F4xx_HAL_Driver/Src/stm32f4xx_hal_tim_ex.o
 .ARM.attributes
                0x00000000000008cc       0x39 Drivers/STM32F4xx_HAL_Driver/Src/stm32f4xx_ll_usb.o
 .ARM.attributes
                0x0000000000000905       0x39 Middlewares/ST/STM32_USB_Device_Library/Class/CDC/Src/usbd_cdc.o
 .ARM.attributes
                0x000000000000093e       0x39 Middlewares/ST/STM32_USB_Device_Library/Core/Src/usbd_core.o
 .ARM.attributes
                0x0000000000000977       0x39 Middlewares/ST/STM32_USB_Device_Library/Core/Src/usbd_ctlreq.o
 .ARM.attributes
                0x00000000000009b0       0x39 Middlewares/ST/STM32_USB_Device_Library/Core/Src/usbd_ioreq.o
 .ARM.attributes
                0x00000000000009e9       0x39 Middlewares/Third_Party/FreeRTOS/Source/CMSIS_RTOS_V2/cmsis_os2.o
 .ARM.attributes
                0x0000000000000a22       0x39 Middlewares/Third_Party/FreeRTOS/Source/croutine.o
 .ARM.attributes
                0x0000000000000a5b       0x39 Middlewares/Third_Party/FreeRTOS/Source/event_groups.o
 .ARM.attributes
                0x0000000000000a94       0x39 Middlewares/Third_Party/FreeRTOS/Source/list.o
 .ARM.attributes
                0x0000000000000acd       0x39 Middlewares/Third_Party/FreeRTOS/Source/portable/GCC/ARM_CM4F/port.o
 .ARM.attributes
                0x0000000000000b06       0x39 Middlewares/Third_Party/FreeRTOS/Source/portable/MemMang/heap_4.o
 .ARM.attributes
                0x0000000000000b3f       0x39 Middlewares/Third_Party/FreeRTOS/Source/queue.o
 .ARM.attributes
                0x0000000000000b78       0x39 Middlewares/Third_Party/FreeRTOS/Source/stream_buffer.o
 .ARM.attributes
                0x0000000000000bb1       0x39 Middlewares/Third_Party/FreeRTOS/Source/tasks.o
 .ARM.attributes
                0x0000000000000bea       0x39 Middlewares/Third_Party/FreeRTOS/Source/timers.o
 .ARM.attributes
                0x0000000000000c23       0x39 Source/Tasks/analog.o
 .ARM.attributes
                0x0000000000000c5c       0x39 Source/Tasks/communication.o
 .ARM.attributes
                0x0000000000000c95       0x39 Source/Timers/envelope.o
 .ARM.attributes
                0x0000000000000cce       0x39 Source/Timers/heartbeat.o
 .ARM.attributes
                0x0000000000000d07       0x39 Source/bmp280.o
 .ARM.attributes
                0x0000000000000d40       0x39 Source/config.o
 .ARM.attributes
                0x0000000000000d79       0x39 Source/crc32.o
 .ARM.attributes
                0x0000000000000db2       0x39 Source/debug.o
 .ARM.attributes
                0x0000000000000deb       0x39 Source/hub.o
 .ARM.attributes
                0x0000000000000e24       0x39 Source/hx711.o
 .ARM.attributes
                0x0000000000000e5d       0x39 Source/stepper.o
 .ARM.attributes
                0x0000000000000e96       0x39 USB_DEVICE/App/usb_device.o
 .ARM.attributes
                0x0000000000000ecf       0x39 USB_DEVICE/App/usbd_cdc_if.o
 .ARM.attributes
                0x0000000000000f08       0x39 USB_DEVICE/App/usbd_desc.o
 .ARM.attributes
                0x0000000000000f41       0x39 USB_DEVICE/Target/usbd_conf.o
 .ARM.attributes
                0x0000000000000f7a       0x21 startup/startup_stm32f407xx.o
 .ARM.attributes
                0x0000000000000f9b       0x34 /opt/Atollic_TrueSTUDIO_for_STM32_x86_64_9.3.0/ARMTools/bin/../lib/gcc/arm-atollic-eabi/6.3.1/../../../../arm-atollic-eabi/lib/armv7e-m/fpu/libc.a(lib_a-errno.o)
 .ARM.attributes
                0x0000000000000fcf       0x34 /opt/Atollic_TrueSTUDIO_for_STM32_x86_64_9.3.0/ARMTools/bin/../lib/gcc/arm-atollic-eabi/6.3.1/../../../../arm-atollic-eabi/lib/armv7e-m/fpu/libc.a(lib_a-impure.o)
 .ARM.attributes
                0x0000000000001003       0x34 /opt/Atollic_TrueSTUDIO_for_STM32_x86_64_9.3.0/ARMTools/bin/../lib/gcc/arm-atollic-eabi/6.3.1/../../../../arm-atollic-eabi/lib/armv7e-m/fpu/libc.a(lib_a-init.o)
 .ARM.attributes
                0x0000000000001037       0x34 /opt/Atollic_TrueSTUDIO_for_STM32_x86_64_9.3.0/ARMTools/bin/../lib/gcc/arm-atollic-eabi/6.3.1/../../../../arm-atollic-eabi/lib/armv7e-m/fpu/libc.a(lib_a-malloc.o)
 .ARM.attributes
                0x000000000000106b       0x34 /opt/Atollic_TrueSTUDIO_for_STM32_x86_64_9.3.0/ARMTools/bin/../lib/gcc/arm-atollic-eabi/6.3.1/../../../../arm-atollic-eabi/lib/armv7e-m/fpu/libc.a(lib_a-mallocr.o)
 .ARM.attributes
                0x000000000000109f       0x34 /opt/Atollic_TrueSTUDIO_for_STM32_x86_64_9.3.0/ARMTools/bin/../lib/gcc/arm-atollic-eabi/6.3.1/../../../../arm-atollic-eabi/lib/armv7e-m/fpu/libc.a(lib_a-memcpy-stub.o)
 .ARM.attributes
                0x00000000000010d3       0x34 /opt/Atollic_TrueSTUDIO_for_STM32_x86_64_9.3.0/ARMTools/bin/../lib/gcc/arm-atollic-eabi/6.3.1/../../../../arm-atollic-eabi/lib/armv7e-m/fpu/libc.a(lib_a-memset.o)
 .ARM.attributes
                0x0000000000001107       0x34 /opt/Atollic_TrueSTUDIO_for_STM32_x86_64_9.3.0/ARMTools/bin/../lib/gcc/arm-atollic-eabi/6.3.1/../../../../arm-atollic-eabi/lib/armv7e-m/fpu/libc.a(lib_a-mlock.o)
 .ARM.attributes
                0x000000000000113b       0x34 /opt/Atollic_TrueSTUDIO_for_STM32_x86_64_9.3.0/ARMTools/bin/../lib/gcc/arm-atollic-eabi/6.3.1/../../../../arm-atollic-eabi/lib/armv7e-m/fpu/libc.a(lib_a-sbrkr.o)
 .ARM.attributes
                0x000000000000116f       0x34 /opt/Atollic_TrueSTUDIO_for_STM32_x86_64_9.3.0/ARMTools/bin/../lib/gcc/arm-atollic-eabi/6.3.1/../../../../arm-atollic-eabi/lib/armv7e-m/fpu/libc.a(lib_a-sprintf.o)
 .ARM.attributes
                0x00000000000011a3       0x34 /opt/Atollic_TrueSTUDIO_for_STM32_x86_64_9.3.0/ARMTools/bin/../lib/gcc/arm-atollic-eabi/6.3.1/../../../../arm-atollic-eabi/lib/armv7e-m/fpu/libc.a(lib_a-strcpy.o)
 .ARM.attributes
                0x00000000000011d7       0x1b /opt/Atollic_TrueSTUDIO_for_STM32_x86_64_9.3.0/ARMTools/bin/../lib/gcc/arm-atollic-eabi/6.3.1/../../../../arm-atollic-eabi/lib/armv7e-m/fpu/libc.a(lib_a-strlen.o)
 .ARM.attributes
                0x00000000000011f2       0x34 /opt/Atollic_TrueSTUDIO_for_STM32_x86_64_9.3.0/ARMTools/bin/../lib/gcc/arm-atollic-eabi/6.3.1/../../../../arm-atollic-eabi/lib/armv7e-m/fpu/libc.a(lib_a-svfprintf.o)
 .ARM.attributes
                0x0000000000001226       0x34 /opt/Atollic_TrueSTUDIO_for_STM32_x86_64_9.3.0/ARMTools/bin/../lib/gcc/arm-atollic-eabi/6.3.1/../../../../arm-atollic-eabi/lib/armv7e-m/fpu/libc.a(lib_a-dtoa.o)
 .ARM.attributes
                0x000000000000125a       0x34 /opt/Atollic_TrueSTUDIO_for_STM32_x86_64_9.3.0/ARMTools/bin/../lib/gcc/arm-atollic-eabi/6.3.1/../../../../arm-atollic-eabi/lib/armv7e-m/fpu/libc.a(lib_a-freer.o)
 .ARM.attributes
                0x000000000000128e       0x34 /opt/Atollic_TrueSTUDIO_for_STM32_x86_64_9.3.0/ARMTools/bin/../lib/gcc/arm-atollic-eabi/6.3.1/../../../../arm-atollic-eabi/lib/armv7e-m/fpu/libc.a(lib_a-localeconv.o)
 .ARM.attributes
                0x00000000000012c2       0x34 /opt/Atollic_TrueSTUDIO_for_STM32_x86_64_9.3.0/ARMTools/bin/../lib/gcc/arm-atollic-eabi/6.3.1/../../../../arm-atollic-eabi/lib/armv7e-m/fpu/libc.a(lib_a-lock.o)
 .ARM.attributes
                0x00000000000012f6       0x20 /opt/Atollic_TrueSTUDIO_for_STM32_x86_64_9.3.0/ARMTools/bin/../lib/gcc/arm-atollic-eabi/6.3.1/../../../../arm-atollic-eabi/lib/armv7e-m/fpu/libc.a(lib_a-memchr.o)
 .ARM.attributes
                0x0000000000001316       0x34 /opt/Atollic_TrueSTUDIO_for_STM32_x86_64_9.3.0/ARMTools/bin/../lib/gcc/arm-atollic-eabi/6.3.1/../../../../arm-atollic-eabi/lib/armv7e-m/fpu/libc.a(lib_a-mprec.o)
 .ARM.attributes
                0x000000000000134a       0x34 /opt/Atollic_TrueSTUDIO_for_STM32_x86_64_9.3.0/ARMTools/bin/../lib/gcc/arm-atollic-eabi/6.3.1/../../../../arm-atollic-eabi/lib/armv7e-m/fpu/libc.a(lib_a-reent.o)
 .ARM.attributes
                0x000000000000137e       0x34 /opt/Atollic_TrueSTUDIO_for_STM32_x86_64_9.3.0/ARMTools/bin/../lib/gcc/arm-atollic-eabi/6.3.1/../../../../arm-atollic-eabi/lib/armv7e-m/fpu/libc.a(lib_a-svfiprintf.o)
 .ARM.attributes
                0x00000000000013b2       0x34 /opt/Atollic_TrueSTUDIO_for_STM32_x86_64_9.3.0/ARMTools/bin/../lib/gcc/arm-atollic-eabi/6.3.1/../../../../arm-atollic-eabi/lib/armv7e-m/fpu/libc.a(lib_a-callocr.o)
 .ARM.attributes
                0x00000000000013e6       0x34 /opt/Atollic_TrueSTUDIO_for_STM32_x86_64_9.3.0/ARMTools/bin/../lib/gcc/arm-atollic-eabi/6.3.1/../../../../arm-atollic-eabi/lib/armv7e-m/fpu/libc.a(lib_a-locale.o)
 .ARM.attributes
                0x000000000000141a       0x34 /opt/Atollic_TrueSTUDIO_for_STM32_x86_64_9.3.0/ARMTools/bin/../lib/gcc/arm-atollic-eabi/6.3.1/../../../../arm-atollic-eabi/lib/armv7e-m/fpu/libc.a(lib_a-mbtowc_r.o)
 .ARM.attributes
                0x000000000000144e       0x34 /opt/Atollic_TrueSTUDIO_for_STM32_x86_64_9.3.0/ARMTools/bin/../lib/gcc/arm-atollic-eabi/6.3.1/../../../../arm-atollic-eabi/lib/armv7e-m/fpu/libc.a(lib_a-memmove.o)
 .ARM.attributes
                0x0000000000001482       0x34 /opt/Atollic_TrueSTUDIO_for_STM32_x86_64_9.3.0/ARMTools/bin/../lib/gcc/arm-atollic-eabi/6.3.1/../../../../arm-atollic-eabi/lib/armv7e-m/fpu/libc.a(lib_a-reallocr.o)
 .ARM.attributes
                0x00000000000014b6       0x20 /opt/Atollic_TrueSTUDIO_for_STM32_x86_64_9.3.0/ARMTools/bin/../lib/gcc/arm-atollic-eabi/6.3.1/../../../../arm-atollic-eabi/lib/armv7e-m/fpu/libc.a(lib_a-strcmp.o)
 .ARM.attributes
                0x00000000000014d6       0x34 /opt/Atollic_TrueSTUDIO_for_STM32_x86_64_9.3.0/ARMTools/bin/../lib/gcc/arm-atollic-eabi/6.3.1/../../../../arm-atollic-eabi/lib/armv7e-m/fpu/libc.a(lib_a-wctomb_r.o)
 .ARM.attributes
                0x000000000000150a       0x34 /opt/Atollic_TrueSTUDIO_for_STM32_x86_64_9.3.0/ARMTools/bin/../lib/gcc/arm-atollic-eabi/6.3.1/../../../../arm-atollic-eabi/lib/armv7e-m/fpu/libc.a(lib_a-ctype_.o)
 .ARM.attributes
                0x000000000000153e       0x34 /opt/Atollic_TrueSTUDIO_for_STM32_x86_64_9.3.0/ARMTools/bin/../lib/gcc/arm-atollic-eabi/6.3.1/../../../../arm-atollic-eabi/lib/armv7e-m/fpu/libm.a(lib_a-w_sqrt.o)
 .ARM.attributes
                0x0000000000001572       0x34 /opt/Atollic_TrueSTUDIO_for_STM32_x86_64_9.3.0/ARMTools/bin/../lib/gcc/arm-atollic-eabi/6.3.1/../../../../arm-atollic-eabi/lib/armv7e-m/fpu/libm.a(lib_a-e_sqrt.o)
 .ARM.attributes
                0x00000000000015a6       0x34 /opt/Atollic_TrueSTUDIO_for_STM32_x86_64_9.3.0/ARMTools/bin/../lib/gcc/arm-atollic-eabi/6.3.1/../../../../arm-atollic-eabi/lib/armv7e-m/fpu/libm.a(lib_a-s_lib_ver.o)
 .ARM.attributes
                0x00000000000015da       0x34 /opt/Atollic_TrueSTUDIO_for_STM32_x86_64_9.3.0/ARMTools/bin/../lib/gcc/arm-atollic-eabi/6.3.1/../../../../arm-atollic-eabi/lib/armv7e-m/fpu/libm.a(lib_a-s_matherr.o)
 .ARM.attributes
                0x000000000000160e       0x22 /opt/Atollic_TrueSTUDIO_for_STM32_x86_64_9.3.0/ARMTools/bin/../lib/gcc/arm-atollic-eabi/6.3.1/armv7e-m/fpu/libgcc.a(_arm_addsubdf3.o)
 .ARM.attributes
                0x0000000000001630       0x22 /opt/Atollic_TrueSTUDIO_for_STM32_x86_64_9.3.0/ARMTools/bin/../lib/gcc/arm-atollic-eabi/6.3.1/armv7e-m/fpu/libgcc.a(_arm_muldivdf3.o)
 .ARM.attributes
                0x0000000000001652       0x22 /opt/Atollic_TrueSTUDIO_for_STM32_x86_64_9.3.0/ARMTools/bin/../lib/gcc/arm-atollic-eabi/6.3.1/armv7e-m/fpu/libgcc.a(_arm_cmpdf2.o)
 .ARM.attributes
                0x0000000000001674       0x22 /opt/Atollic_TrueSTUDIO_for_STM32_x86_64_9.3.0/ARMTools/bin/../lib/gcc/arm-atollic-eabi/6.3.1/armv7e-m/fpu/libgcc.a(_arm_unorddf2.o)
 .ARM.attributes
                0x0000000000001696       0x22 /opt/Atollic_TrueSTUDIO_for_STM32_x86_64_9.3.0/ARMTools/bin/../lib/gcc/arm-atollic-eabi/6.3.1/armv7e-m/fpu/libgcc.a(_arm_fixdfsi.o)
 .ARM.attributes
                0x00000000000016b8       0x22 /opt/Atollic_TrueSTUDIO_for_STM32_x86_64_9.3.0/ARMTools/bin/../lib/gcc/arm-atollic-eabi/6.3.1/armv7e-m/fpu/libgcc.a(_aeabi_ldivmod.o)
 .ARM.attributes
                0x00000000000016da       0x22 /opt/Atollic_TrueSTUDIO_for_STM32_x86_64_9.3.0/ARMTools/bin/../lib/gcc/arm-atollic-eabi/6.3.1/armv7e-m/fpu/libgcc.a(_aeabi_uldivmod.o)
 .ARM.attributes
                0x00000000000016fc       0x34 /opt/Atollic_TrueSTUDIO_for_STM32_x86_64_9.3.0/ARMTools/bin/../lib/gcc/arm-atollic-eabi/6.3.1/armv7e-m/fpu/libgcc.a(_udivmoddi4.o)
 .ARM.attributes
                0x0000000000001730       0x22 /opt/Atollic_TrueSTUDIO_for_STM32_x86_64_9.3.0/ARMTools/bin/../lib/gcc/arm-atollic-eabi/6.3.1/armv7e-m/fpu/libgcc.a(_dvmd_tls.o)
 .ARM.attributes
                0x0000000000001752       0x34 /opt/Atollic_TrueSTUDIO_for_STM32_x86_64_9.3.0/ARMTools/bin/../lib/gcc/arm-atollic-eabi/6.3.1/armv7e-m/fpu/crtend.o
 .ARM.attributes
                0x0000000000001786       0x22 /opt/Atollic_TrueSTUDIO_for_STM32_x86_64_9.3.0/ARMTools/bin/../lib/gcc/arm-atollic-eabi/6.3.1/armv7e-m/fpu/crtn.o
OUTPUT(dyno.elf elf32-littlearm)

.debug_info     0x0000000000000000    0x471bb
 .debug_info    0x0000000000000000      0xd69 Core/src/adc.o
 .debug_info    0x0000000000000d69      0x930 Core/src/can.o
 .debug_info    0x0000000000001699      0xc6f Core/src/dac.o
 .debug_info    0x0000000000002308      0x5b9 Core/src/dma.o
 .debug_info    0x00000000000028c1     0x12cb Core/src/freertos.o
 .debug_info    0x0000000000003b8c      0x7f6 Core/src/gpio.o
 .debug_info    0x0000000000004382      0xa64 Core/src/i2c.o
 .debug_info    0x0000000000004de6     0x23f8 Core/src/main.o
 .debug_info    0x00000000000071de      0x5b5 Core/src/stm32f4xx_hal_msp.o
 .debug_info    0x0000000000007793      0xbfd Core/src/stm32f4xx_hal_timebase_tim.o
 .debug_info    0x0000000000008390      0xcf0 Core/src/stm32f4xx_it.o
 .debug_info    0x0000000000009080      0xfd4 Core/src/syscalls.o
 .debug_info    0x000000000000a054      0x55b Core/src/system_stm32f4xx.o
 .debug_info    0x000000000000a5af     0x156b Core/src/tim.o
 .debug_info    0x000000000000bb1a      0x9f0 Drivers/STM32F4xx_HAL_Driver/Src/stm32f4xx_hal.o
 .debug_info    0x000000000000c50a      0xe10 Drivers/STM32F4xx_HAL_Driver/Src/stm32f4xx_hal_adc.o
 .debug_info    0x000000000000d31a      0xc28 Drivers/STM32F4xx_HAL_Driver/Src/stm32f4xx_hal_adc_ex.o
 .debug_info    0x000000000000df42     0x1142 Drivers/STM32F4xx_HAL_Driver/Src/stm32f4xx_hal_can.o
 .debug_info    0x000000000000f084      0xf8c Drivers/STM32F4xx_HAL_Driver/Src/stm32f4xx_hal_cortex.o
 .debug_info    0x0000000000010010      0xb25 Drivers/STM32F4xx_HAL_Driver/Src/stm32f4xx_hal_dac.o
 .debug_info    0x0000000000010b35      0x7f3 Drivers/STM32F4xx_HAL_Driver/Src/stm32f4xx_hal_dac_ex.o
 .debug_info    0x0000000000011328      0xaa9 Drivers/STM32F4xx_HAL_Driver/Src/stm32f4xx_hal_dma.o
 .debug_info    0x0000000000011dd1      0x608 Drivers/STM32F4xx_HAL_Driver/Src/stm32f4xx_hal_dma_ex.o
 .debug_info    0x00000000000123d9      0x5f6 Drivers/STM32F4xx_HAL_Driver/Src/stm32f4xx_hal_exti.o
 .debug_info    0x00000000000129cf      0x7c1 Drivers/STM32F4xx_HAL_Driver/Src/stm32f4xx_hal_flash.o
 .debug_info    0x0000000000013190      0x84e Drivers/STM32F4xx_HAL_Driver/Src/stm32f4xx_hal_flash_ex.o
 .debug_info    0x00000000000139de      0x16b Drivers/STM32F4xx_HAL_Driver/Src/stm32f4xx_hal_flash_ramfunc.o
 .debug_info    0x0000000000013b49      0x7c1 Drivers/STM32F4xx_HAL_Driver/Src/stm32f4xx_hal_gpio.o
 .debug_info    0x000000000001430a     0x3323 Drivers/STM32F4xx_HAL_Driver/Src/stm32f4xx_hal_i2c.o
 .debug_info    0x000000000001762d      0x16b Drivers/STM32F4xx_HAL_Driver/Src/stm32f4xx_hal_i2c_ex.o
 .debug_info    0x0000000000017798     0x17b6 Drivers/STM32F4xx_HAL_Driver/Src/stm32f4xx_hal_pcd.o
 .debug_info    0x0000000000018f4e      0x74e Drivers/STM32F4xx_HAL_Driver/Src/stm32f4xx_hal_pcd_ex.o
 .debug_info    0x000000000001969c      0x774 Drivers/STM32F4xx_HAL_Driver/Src/stm32f4xx_hal_pwr.o
 .debug_info    0x0000000000019e10      0x4e9 Drivers/STM32F4xx_HAL_Driver/Src/stm32f4xx_hal_pwr_ex.o
 .debug_info    0x000000000001a2f9      0xa93 Drivers/STM32F4xx_HAL_Driver/Src/stm32f4xx_hal_rcc.o
 .debug_info    0x000000000001ad8c      0x6b8 Drivers/STM32F4xx_HAL_Driver/Src/stm32f4xx_hal_rcc_ex.o
 .debug_info    0x000000000001b444     0x31d6 Drivers/STM32F4xx_HAL_Driver/Src/stm32f4xx_hal_tim.o
 .debug_info    0x000000000001e61a     0x14e7 Drivers/STM32F4xx_HAL_Driver/Src/stm32f4xx_hal_tim_ex.o
 .debug_info    0x000000000001fb01     0x1b62 Drivers/STM32F4xx_HAL_Driver/Src/stm32f4xx_ll_usb.o
 .debug_info    0x0000000000021663     0x1aef Middlewares/ST/STM32_USB_Device_Library/Class/CDC/Src/usbd_cdc.o
 .debug_info    0x0000000000023152     0x1556 Middlewares/ST/STM32_USB_Device_Library/Core/Src/usbd_core.o
 .debug_info    0x00000000000246a8     0x1813 Middlewares/ST/STM32_USB_Device_Library/Core/Src/usbd_ctlreq.o
 .debug_info    0x0000000000025ebb     0x1046 Middlewares/ST/STM32_USB_Device_Library/Core/Src/usbd_ioreq.o
 .debug_info    0x0000000000026f01     0x4b8d Middlewares/Third_Party/FreeRTOS/Source/CMSIS_RTOS_V2/cmsis_os2.o
 .debug_info    0x000000000002ba8e       0x9a Middlewares/Third_Party/FreeRTOS/Source/croutine.o
 .debug_info    0x000000000002bb28     0x162c Middlewares/Third_Party/FreeRTOS/Source/event_groups.o
 .debug_info    0x000000000002d154      0xade Middlewares/Third_Party/FreeRTOS/Source/list.o
 .debug_info    0x000000000002dc32      0x572 Middlewares/Third_Party/FreeRTOS/Source/portable/GCC/ARM_CM4F/port.o
 .debug_info    0x000000000002e1a4      0xc7d Middlewares/Third_Party/FreeRTOS/Source/portable/MemMang/heap_4.o
 .debug_info    0x000000000002ee21     0x2c77 Middlewares/Third_Party/FreeRTOS/Source/queue.o
 .debug_info    0x0000000000031a98     0x2041 Middlewares/Third_Party/FreeRTOS/Source/stream_buffer.o
 .debug_info    0x0000000000033ad9     0x375f Middlewares/Third_Party/FreeRTOS/Source/tasks.o
 .debug_info    0x0000000000037238     0x1fab Middlewares/Third_Party/FreeRTOS/Source/timers.o
 .debug_info    0x00000000000391e3      0x92d Source/Tasks/analog.o
 .debug_info    0x0000000000039b10     0x1bb8 Source/Tasks/communication.o
 .debug_info    0x000000000003b6c8      0xf7e Source/Timers/envelope.o
 .debug_info    0x000000000003c646      0xca7 Source/Timers/heartbeat.o
 .debug_info    0x000000000003d2ed     0x15ae Source/bmp280.o
 .debug_info    0x000000000003e89b      0x211 Source/config.o
 .debug_info    0x000000000003eaac      0x141 Source/crc32.o
 .debug_info    0x000000000003ebed     0x10f6 Source/debug.o
 .debug_info    0x000000000003fce3      0x60e Source/hub.o
 .debug_info    0x00000000000402f1      0xa07 Source/hx711.o
 .debug_info    0x0000000000040cf8      0xecf Source/stepper.o
 .debug_info    0x0000000000041bc7      0xf55 USB_DEVICE/App/usb_device.o
 .debug_info    0x0000000000042b1c     0x138e USB_DEVICE/App/usbd_cdc_if.o
 .debug_info    0x0000000000043eaa      0xe76 USB_DEVICE/App/usbd_desc.o
 .debug_info    0x0000000000044d20     0x2436 USB_DEVICE/Target/usbd_conf.o
 .debug_info    0x0000000000047156       0x65 startup/startup_stm32f407xx.o

.debug_abbrev   0x0000000000000000     0x9508
 .debug_abbrev  0x0000000000000000      0x1be Core/src/adc.o
 .debug_abbrev  0x00000000000001be      0x1d8 Core/src/can.o
 .debug_abbrev  0x0000000000000396      0x1cd Core/src/dac.o
 .debug_abbrev  0x0000000000000563      0x13b Core/src/dma.o
 .debug_abbrev  0x000000000000069e      0x242 Core/src/freertos.o
 .debug_abbrev  0x00000000000008e0      0x177 Core/src/gpio.o
 .debug_abbrev  0x0000000000000a57      0x1c4 Core/src/i2c.o
 .debug_abbrev  0x0000000000000c1b      0x311 Core/src/main.o
 .debug_abbrev  0x0000000000000f2c      0x12e Core/src/stm32f4xx_hal_msp.o
 .debug_abbrev  0x000000000000105a      0x1e9 Core/src/stm32f4xx_hal_timebase_tim.o
 .debug_abbrev  0x0000000000001243      0x1b8 Core/src/stm32f4xx_it.o
 .debug_abbrev  0x00000000000013fb      0x29b Core/src/syscalls.o
 .debug_abbrev  0x0000000000001696      0x126 Core/src/system_stm32f4xx.o
 .debug_abbrev  0x00000000000017bc      0x221 Core/src/tim.o
 .debug_abbrev  0x00000000000019dd      0x1e8 Drivers/STM32F4xx_HAL_Driver/Src/stm32f4xx_hal.o
 .debug_abbrev  0x0000000000001bc5      0x23d Drivers/STM32F4xx_HAL_Driver/Src/stm32f4xx_hal_adc.o
 .debug_abbrev  0x0000000000001e02      0x279 Drivers/STM32F4xx_HAL_Driver/Src/stm32f4xx_hal_adc_ex.o
 .debug_abbrev  0x000000000000207b      0x25c Drivers/STM32F4xx_HAL_Driver/Src/stm32f4xx_hal_can.o
 .debug_abbrev  0x00000000000022d7      0x323 Drivers/STM32F4xx_HAL_Driver/Src/stm32f4xx_hal_cortex.o
 .debug_abbrev  0x00000000000025fa      0x1fe Drivers/STM32F4xx_HAL_Driver/Src/stm32f4xx_hal_dac.o
 .debug_abbrev  0x00000000000027f8      0x218 Drivers/STM32F4xx_HAL_Driver/Src/stm32f4xx_hal_dac_ex.o
 .debug_abbrev  0x0000000000002a10      0x28b Drivers/STM32F4xx_HAL_Driver/Src/stm32f4xx_hal_dma.o
 .debug_abbrev  0x0000000000002c9b      0x1c4 Drivers/STM32F4xx_HAL_Driver/Src/stm32f4xx_hal_dma_ex.o
 .debug_abbrev  0x0000000000002e5f      0x1e4 Drivers/STM32F4xx_HAL_Driver/Src/stm32f4xx_hal_exti.o
 .debug_abbrev  0x0000000000003043      0x262 Drivers/STM32F4xx_HAL_Driver/Src/stm32f4xx_hal_flash.o
 .debug_abbrev  0x00000000000032a5      0x245 Drivers/STM32F4xx_HAL_Driver/Src/stm32f4xx_hal_flash_ex.o
 .debug_abbrev  0x00000000000034ea       0x8d Drivers/STM32F4xx_HAL_Driver/Src/stm32f4xx_hal_flash_ramfunc.o
 .debug_abbrev  0x0000000000003577      0x1e2 Drivers/STM32F4xx_HAL_Driver/Src/stm32f4xx_hal_gpio.o
 .debug_abbrev  0x0000000000003759      0x270 Drivers/STM32F4xx_HAL_Driver/Src/stm32f4xx_hal_i2c.o
 .debug_abbrev  0x00000000000039c9       0x8d Drivers/STM32F4xx_HAL_Driver/Src/stm32f4xx_hal_i2c_ex.o
 .debug_abbrev  0x0000000000003a56      0x28f Drivers/STM32F4xx_HAL_Driver/Src/stm32f4xx_hal_pcd.o
 .debug_abbrev  0x0000000000003ce5      0x1d9 Drivers/STM32F4xx_HAL_Driver/Src/stm32f4xx_hal_pcd_ex.o
 .debug_abbrev  0x0000000000003ebe      0x193 Drivers/STM32F4xx_HAL_Driver/Src/stm32f4xx_hal_pwr.o
 .debug_abbrev  0x0000000000004051      0x174 Drivers/STM32F4xx_HAL_Driver/Src/stm32f4xx_hal_pwr_ex.o
 .debug_abbrev  0x00000000000041c5      0x26e Drivers/STM32F4xx_HAL_Driver/Src/stm32f4xx_hal_rcc.o
 .debug_abbrev  0x0000000000004433      0x174 Drivers/STM32F4xx_HAL_Driver/Src/stm32f4xx_hal_rcc_ex.o
 .debug_abbrev  0x00000000000045a7      0x21f Drivers/STM32F4xx_HAL_Driver/Src/stm32f4xx_hal_tim.o
 .debug_abbrev  0x00000000000047c6      0x230 Drivers/STM32F4xx_HAL_Driver/Src/stm32f4xx_hal_tim_ex.o
 .debug_abbrev  0x00000000000049f6      0x2ab Drivers/STM32F4xx_HAL_Driver/Src/stm32f4xx_ll_usb.o
 .debug_abbrev  0x0000000000004ca1      0x2f5 Middlewares/ST/STM32_USB_Device_Library/Class/CDC/Src/usbd_cdc.o
 .debug_abbrev  0x0000000000004f96      0x29c Middlewares/ST/STM32_USB_Device_Library/Core/Src/usbd_core.o
 .debug_abbrev  0x0000000000005232      0x2fd Middlewares/ST/STM32_USB_Device_Library/Core/Src/usbd_ctlreq.o
 .debug_abbrev  0x000000000000552f      0x1e9 Middlewares/ST/STM32_USB_Device_Library/Core/Src/usbd_ioreq.o
 .debug_abbrev  0x0000000000005718      0x414 Middlewares/Third_Party/FreeRTOS/Source/CMSIS_RTOS_V2/cmsis_os2.o
 .debug_abbrev  0x0000000000005b2c       0x44 Middlewares/Third_Party/FreeRTOS/Source/croutine.o
 .debug_abbrev  0x0000000000005b70      0x33c Middlewares/Third_Party/FreeRTOS/Source/event_groups.o
 .debug_abbrev  0x0000000000005eac      0x1ea Middlewares/Third_Party/FreeRTOS/Source/list.o
 .debug_abbrev  0x0000000000006096      0x23a Middlewares/Third_Party/FreeRTOS/Source/portable/GCC/ARM_CM4F/port.o
 .debug_abbrev  0x00000000000062d0      0x2df Middlewares/Third_Party/FreeRTOS/Source/portable/MemMang/heap_4.o
 .debug_abbrev  0x00000000000065af      0x39a Middlewares/Third_Party/FreeRTOS/Source/queue.o
 .debug_abbrev  0x0000000000006949      0x371 Middlewares/Third_Party/FreeRTOS/Source/stream_buffer.o
 .debug_abbrev  0x0000000000006cba      0x37c Middlewares/Third_Party/FreeRTOS/Source/tasks.o
 .debug_abbrev  0x0000000000007036      0x325 Middlewares/Third_Party/FreeRTOS/Source/timers.o
 .debug_abbrev  0x000000000000735b      0x219 Source/Tasks/analog.o
 .debug_abbrev  0x0000000000007574      0x329 Source/Tasks/communication.o
 .debug_abbrev  0x000000000000789d      0x201 Source/Timers/envelope.o
 .debug_abbrev  0x0000000000007a9e      0x1df Source/Timers/heartbeat.o
 .debug_abbrev  0x0000000000007c7d      0x3ab Source/bmp280.o
 .debug_abbrev  0x0000000000008028       0xac Source/config.o
 .debug_abbrev  0x00000000000080d4       0xd0 Source/crc32.o
 .debug_abbrev  0x00000000000081a4      0x25d Source/debug.o
 .debug_abbrev  0x0000000000008401      0x1e9 Source/hub.o
 .debug_abbrev  0x00000000000085ea      0x26d Source/hx711.o
 .debug_abbrev  0x0000000000008857      0x27f Source/stepper.o
 .debug_abbrev  0x0000000000008ad6      0x1f0 USB_DEVICE/App/usb_device.o
 .debug_abbrev  0x0000000000008cc6      0x304 USB_DEVICE/App/usbd_cdc_if.o
 .debug_abbrev  0x0000000000008fca      0x26d USB_DEVICE/App/usbd_desc.o
 .debug_abbrev  0x0000000000009237      0x2bf USB_DEVICE/Target/usbd_conf.o
 .debug_abbrev  0x00000000000094f6       0x12 startup/startup_stm32f407xx.o

.debug_loc      0x0000000000000000    0x1f51a
 .debug_loc     0x0000000000000000       0x63 Core/src/adc.o
 .debug_loc     0x0000000000000063       0x74 Core/src/can.o
 .debug_loc     0x00000000000000d7       0x74 Core/src/dac.o
 .debug_loc     0x000000000000014b       0x21 Core/src/freertos.o
 .debug_loc     0x000000000000016c       0x74 Core/src/i2c.o
 .debug_loc     0x00000000000001e0       0xa5 Core/src/main.o
 .debug_loc     0x0000000000000285       0x6a Core/src/stm32f4xx_hal_timebase_tim.o
 .debug_loc     0x00000000000002ef      0x3ad Core/src/syscalls.o
 .debug_loc     0x000000000000069c      0x13e Core/src/system_stm32f4xx.o
 .debug_loc     0x00000000000007da       0xd8 Core/src/tim.o
 .debug_loc     0x00000000000008b2      0x10d Drivers/STM32F4xx_HAL_Driver/Src/stm32f4xx_hal.o
 .debug_loc     0x00000000000009bf      0x9e6 Drivers/STM32F4xx_HAL_Driver/Src/stm32f4xx_hal_adc.o
 .debug_loc     0x00000000000013a5      0x940 Drivers/STM32F4xx_HAL_Driver/Src/stm32f4xx_hal_adc_ex.o
 .debug_loc     0x0000000000001ce5      0xc47 Drivers/STM32F4xx_HAL_Driver/Src/stm32f4xx_hal_can.o
 .debug_loc     0x000000000000292c      0x616 Drivers/STM32F4xx_HAL_Driver/Src/stm32f4xx_hal_cortex.o
 .debug_loc     0x0000000000002f42      0x757 Drivers/STM32F4xx_HAL_Driver/Src/stm32f4xx_hal_dac.o
 .debug_loc     0x0000000000003699      0x32f Drivers/STM32F4xx_HAL_Driver/Src/stm32f4xx_hal_dac_ex.o
 .debug_loc     0x00000000000039c8      0xae1 Drivers/STM32F4xx_HAL_Driver/Src/stm32f4xx_hal_dma.o
 .debug_loc     0x00000000000044a9      0x3f4 Drivers/STM32F4xx_HAL_Driver/Src/stm32f4xx_hal_dma_ex.o
 .debug_loc     0x000000000000489d      0x49e Drivers/STM32F4xx_HAL_Driver/Src/stm32f4xx_hal_exti.o
 .debug_loc     0x0000000000004d3b      0x2df Drivers/STM32F4xx_HAL_Driver/Src/stm32f4xx_hal_flash.o
 .debug_loc     0x000000000000501a      0x54c Drivers/STM32F4xx_HAL_Driver/Src/stm32f4xx_hal_flash_ex.o
 .debug_loc     0x0000000000005566      0x42a Drivers/STM32F4xx_HAL_Driver/Src/stm32f4xx_hal_gpio.o
 .debug_loc     0x0000000000005990     0x3733 Drivers/STM32F4xx_HAL_Driver/Src/stm32f4xx_hal_i2c.o
 .debug_loc     0x00000000000090c3      0xf73 Drivers/STM32F4xx_HAL_Driver/Src/stm32f4xx_hal_pcd.o
 .debug_loc     0x000000000000a036       0xab Drivers/STM32F4xx_HAL_Driver/Src/stm32f4xx_hal_pcd_ex.o
 .debug_loc     0x000000000000a0e1       0x63 Drivers/STM32F4xx_HAL_Driver/Src/stm32f4xx_hal_pwr.o
 .debug_loc     0x000000000000a144       0x7e Drivers/STM32F4xx_HAL_Driver/Src/stm32f4xx_hal_pwr_ex.o
 .debug_loc     0x000000000000a1c2      0x404 Drivers/STM32F4xx_HAL_Driver/Src/stm32f4xx_hal_rcc.o
 .debug_loc     0x000000000000a5c6      0x2fb Drivers/STM32F4xx_HAL_Driver/Src/stm32f4xx_hal_rcc_ex.o
 .debug_loc     0x000000000000a8c1     0x382f Drivers/STM32F4xx_HAL_Driver/Src/stm32f4xx_hal_tim.o
 .debug_loc     0x000000000000e0f0     0x11fc Drivers/STM32F4xx_HAL_Driver/Src/stm32f4xx_hal_tim_ex.o
 .debug_loc     0x000000000000f2ec     0x1e3b Drivers/STM32F4xx_HAL_Driver/Src/stm32f4xx_ll_usb.o
 .debug_loc     0x0000000000011127      0x705 Middlewares/ST/STM32_USB_Device_Library/Class/CDC/Src/usbd_cdc.o
 .debug_loc     0x000000000001182c      0x713 Middlewares/ST/STM32_USB_Device_Library/Core/Src/usbd_core.o
 .debug_loc     0x0000000000011f3f      0xe47 Middlewares/ST/STM32_USB_Device_Library/Core/Src/usbd_ctlreq.o
 .debug_loc     0x0000000000012d86      0x23c Middlewares/ST/STM32_USB_Device_Library/Core/Src/usbd_ioreq.o
 .debug_loc     0x0000000000012fc2     0x3fa3 Middlewares/Third_Party/FreeRTOS/Source/CMSIS_RTOS_V2/cmsis_os2.o
 .debug_loc     0x0000000000016f65      0x8dd Middlewares/Third_Party/FreeRTOS/Source/event_groups.o
 .debug_loc     0x0000000000017842       0x70 Middlewares/Third_Party/FreeRTOS/Source/list.o
 .debug_loc     0x00000000000178b2       0xdc Middlewares/Third_Party/FreeRTOS/Source/portable/GCC/ARM_CM4F/port.o
 .debug_loc     0x000000000001798e      0x291 Middlewares/Third_Party/FreeRTOS/Source/portable/MemMang/heap_4.o
 .debug_loc     0x0000000000017c1f     0x1520 Middlewares/Third_Party/FreeRTOS/Source/queue.o
 .debug_loc     0x000000000001913f     0x121f Middlewares/Third_Party/FreeRTOS/Source/stream_buffer.o
 .debug_loc     0x000000000001a35e     0x1f41 Middlewares/Third_Party/FreeRTOS/Source/tasks.o
 .debug_loc     0x000000000001c29f      0xc13 Middlewares/Third_Party/FreeRTOS/Source/timers.o
 .debug_loc     0x000000000001ceb2       0x97 Source/Tasks/analog.o
 .debug_loc     0x000000000001cf49      0x39d Source/Tasks/communication.o
 .debug_loc     0x000000000001d2e6       0x21 Source/Timers/envelope.o
 .debug_loc     0x000000000001d307       0x8b Source/Timers/heartbeat.o
 .debug_loc     0x000000000001d392      0xc2e Source/bmp280.o
 .debug_loc     0x000000000001dfc0       0xa7 Source/crc32.o
 .debug_loc     0x000000000001e067       0xa7 Source/debug.o
 .debug_loc     0x000000000001e10e       0xf1 Source/hub.o
 .debug_loc     0x000000000001e1ff      0x213 Source/hx711.o
 .debug_loc     0x000000000001e412      0x1c4 Source/stepper.o
 .debug_loc     0x000000000001e5d6      0x190 USB_DEVICE/App/usbd_cdc_if.o
 .debug_loc     0x000000000001e766      0x30e USB_DEVICE/App/usbd_desc.o
 .debug_loc     0x000000000001ea74      0xaa6 USB_DEVICE/Target/usbd_conf.o

.debug_aranges  0x0000000000000000      0x888
 .debug_aranges
                0x0000000000000000       0x20 Core/src/adc.o
 .debug_aranges
                0x0000000000000020       0x20 Core/src/can.o
 .debug_aranges
                0x0000000000000040       0x20 Core/src/dac.o
 .debug_aranges
                0x0000000000000060       0x20 Core/src/dma.o
 .debug_aranges
                0x0000000000000080       0x20 Core/src/freertos.o
 .debug_aranges
                0x00000000000000a0       0x20 Core/src/gpio.o
 .debug_aranges
                0x00000000000000c0       0x20 Core/src/i2c.o
 .debug_aranges
                0x00000000000000e0       0x20 Core/src/main.o
 .debug_aranges
                0x0000000000000100       0x20 Core/src/stm32f4xx_hal_msp.o
 .debug_aranges
                0x0000000000000120       0x20 Core/src/stm32f4xx_hal_timebase_tim.o
 .debug_aranges
                0x0000000000000140       0x20 Core/src/stm32f4xx_it.o
 .debug_aranges
                0x0000000000000160       0x20 Core/src/syscalls.o
 .debug_aranges
                0x0000000000000180       0x20 Core/src/system_stm32f4xx.o
 .debug_aranges
                0x00000000000001a0       0x20 Core/src/tim.o
 .debug_aranges
                0x00000000000001c0       0x20 Drivers/STM32F4xx_HAL_Driver/Src/stm32f4xx_hal.o
 .debug_aranges
                0x00000000000001e0       0x20 Drivers/STM32F4xx_HAL_Driver/Src/stm32f4xx_hal_adc.o
 .debug_aranges
                0x0000000000000200       0x20 Drivers/STM32F4xx_HAL_Driver/Src/stm32f4xx_hal_adc_ex.o
 .debug_aranges
                0x0000000000000220       0x20 Drivers/STM32F4xx_HAL_Driver/Src/stm32f4xx_hal_can.o
 .debug_aranges
                0x0000000000000240       0x20 Drivers/STM32F4xx_HAL_Driver/Src/stm32f4xx_hal_cortex.o
 .debug_aranges
                0x0000000000000260       0x20 Drivers/STM32F4xx_HAL_Driver/Src/stm32f4xx_hal_dac.o
 .debug_aranges
                0x0000000000000280       0x20 Drivers/STM32F4xx_HAL_Driver/Src/stm32f4xx_hal_dac_ex.o
 .debug_aranges
                0x00000000000002a0       0x20 Drivers/STM32F4xx_HAL_Driver/Src/stm32f4xx_hal_dma.o
 .debug_aranges
                0x00000000000002c0       0x20 Drivers/STM32F4xx_HAL_Driver/Src/stm32f4xx_hal_dma_ex.o
 .debug_aranges
                0x00000000000002e0       0x20 Drivers/STM32F4xx_HAL_Driver/Src/stm32f4xx_hal_exti.o
 .debug_aranges
                0x0000000000000300       0x20 Drivers/STM32F4xx_HAL_Driver/Src/stm32f4xx_hal_flash.o
 .debug_aranges
                0x0000000000000320       0x20 Drivers/STM32F4xx_HAL_Driver/Src/stm32f4xx_hal_flash_ex.o
 .debug_aranges
                0x0000000000000340       0x18 Drivers/STM32F4xx_HAL_Driver/Src/stm32f4xx_hal_flash_ramfunc.o
 .debug_aranges
                0x0000000000000358       0x20 Drivers/STM32F4xx_HAL_Driver/Src/stm32f4xx_hal_gpio.o
 .debug_aranges
                0x0000000000000378       0x20 Drivers/STM32F4xx_HAL_Driver/Src/stm32f4xx_hal_i2c.o
 .debug_aranges
                0x0000000000000398       0x18 Drivers/STM32F4xx_HAL_Driver/Src/stm32f4xx_hal_i2c_ex.o
 .debug_aranges
                0x00000000000003b0       0x20 Drivers/STM32F4xx_HAL_Driver/Src/stm32f4xx_hal_pcd.o
 .debug_aranges
                0x00000000000003d0       0x20 Drivers/STM32F4xx_HAL_Driver/Src/stm32f4xx_hal_pcd_ex.o
 .debug_aranges
                0x00000000000003f0       0x20 Drivers/STM32F4xx_HAL_Driver/Src/stm32f4xx_hal_pwr.o
 .debug_aranges
                0x0000000000000410       0x20 Drivers/STM32F4xx_HAL_Driver/Src/stm32f4xx_hal_pwr_ex.o
 .debug_aranges
                0x0000000000000430       0x20 Drivers/STM32F4xx_HAL_Driver/Src/stm32f4xx_hal_rcc.o
 .debug_aranges
                0x0000000000000450       0x20 Drivers/STM32F4xx_HAL_Driver/Src/stm32f4xx_hal_rcc_ex.o
 .debug_aranges
                0x0000000000000470       0x20 Drivers/STM32F4xx_HAL_Driver/Src/stm32f4xx_hal_tim.o
 .debug_aranges
                0x0000000000000490       0x20 Drivers/STM32F4xx_HAL_Driver/Src/stm32f4xx_hal_tim_ex.o
 .debug_aranges
                0x00000000000004b0       0x20 Drivers/STM32F4xx_HAL_Driver/Src/stm32f4xx_ll_usb.o
 .debug_aranges
                0x00000000000004d0       0x20 Middlewares/ST/STM32_USB_Device_Library/Class/CDC/Src/usbd_cdc.o
 .debug_aranges
                0x00000000000004f0       0x20 Middlewares/ST/STM32_USB_Device_Library/Core/Src/usbd_core.o
 .debug_aranges
                0x0000000000000510       0x20 Middlewares/ST/STM32_USB_Device_Library/Core/Src/usbd_ctlreq.o
 .debug_aranges
                0x0000000000000530       0x20 Middlewares/ST/STM32_USB_Device_Library/Core/Src/usbd_ioreq.o
 .debug_aranges
                0x0000000000000550       0x20 Middlewares/Third_Party/FreeRTOS/Source/CMSIS_RTOS_V2/cmsis_os2.o
 .debug_aranges
                0x0000000000000570       0x18 Middlewares/Third_Party/FreeRTOS/Source/croutine.o
 .debug_aranges
                0x0000000000000588       0x20 Middlewares/Third_Party/FreeRTOS/Source/event_groups.o
 .debug_aranges
                0x00000000000005a8       0x20 Middlewares/Third_Party/FreeRTOS/Source/list.o
 .debug_aranges
                0x00000000000005c8       0x20 Middlewares/Third_Party/FreeRTOS/Source/portable/GCC/ARM_CM4F/port.o
 .debug_aranges
                0x00000000000005e8       0x20 Middlewares/Third_Party/FreeRTOS/Source/portable/MemMang/heap_4.o
 .debug_aranges
                0x0000000000000608       0x20 Middlewares/Third_Party/FreeRTOS/Source/queue.o
 .debug_aranges
                0x0000000000000628       0x20 Middlewares/Third_Party/FreeRTOS/Source/stream_buffer.o
 .debug_aranges
                0x0000000000000648       0x20 Middlewares/Third_Party/FreeRTOS/Source/tasks.o
 .debug_aranges
                0x0000000000000668       0x20 Middlewares/Third_Party/FreeRTOS/Source/timers.o
 .debug_aranges
                0x0000000000000688       0x20 Source/Tasks/analog.o
 .debug_aranges
                0x00000000000006a8       0x20 Source/Tasks/communication.o
 .debug_aranges
                0x00000000000006c8       0x20 Source/Timers/envelope.o
 .debug_aranges
                0x00000000000006e8       0x20 Source/Timers/heartbeat.o
 .debug_aranges
                0x0000000000000708       0x20 Source/bmp280.o
 .debug_aranges
                0x0000000000000728       0x18 Source/config.o
 .debug_aranges
                0x0000000000000740       0x20 Source/crc32.o
 .debug_aranges
                0x0000000000000760       0x20 Source/debug.o
 .debug_aranges
                0x0000000000000780       0x20 Source/hub.o
 .debug_aranges
                0x00000000000007a0       0x20 Source/hx711.o
 .debug_aranges
                0x00000000000007c0       0x20 Source/stepper.o
 .debug_aranges
                0x00000000000007e0       0x20 USB_DEVICE/App/usb_device.o
 .debug_aranges
                0x0000000000000800       0x20 USB_DEVICE/App/usbd_cdc_if.o
 .debug_aranges
                0x0000000000000820       0x20 USB_DEVICE/App/usbd_desc.o
 .debug_aranges
                0x0000000000000840       0x20 USB_DEVICE/Target/usbd_conf.o
 .debug_aranges
                0x0000000000000860       0x28 startup/startup_stm32f407xx.o

.debug_line     0x0000000000000000    0x1400b
 .debug_line    0x0000000000000000      0x322 Core/src/adc.o
 .debug_line    0x0000000000000322      0x2b2 Core/src/can.o
 .debug_line    0x00000000000005d4      0x2d4 Core/src/dac.o
 .debug_line    0x00000000000008a8      0x222 Core/src/dma.o
 .debug_line    0x0000000000000aca      0x414 Core/src/freertos.o
 .debug_line    0x0000000000000ede      0x250 Core/src/gpio.o
 .debug_line    0x000000000000112e      0x2b8 Core/src/i2c.o
 .debug_line    0x00000000000013e6      0x57c Core/src/main.o
 .debug_line    0x0000000000001962      0x231 Core/src/stm32f4xx_hal_msp.o
 .debug_line    0x0000000000001b93      0x2a8 Core/src/stm32f4xx_hal_timebase_tim.o
 .debug_line    0x0000000000001e3b      0x2b4 Core/src/stm32f4xx_it.o
 .debug_line    0x00000000000020ef      0x296 Core/src/syscalls.o
 .debug_line    0x0000000000002385      0x232 Core/src/system_stm32f4xx.o
 .debug_line    0x00000000000025b7      0x3a8 Core/src/tim.o
 .debug_line    0x000000000000295f      0x2e4 Drivers/STM32F4xx_HAL_Driver/Src/stm32f4xx_hal.o
 .debug_line    0x0000000000002c43      0x60f Drivers/STM32F4xx_HAL_Driver/Src/stm32f4xx_hal_adc.o
 .debug_line    0x0000000000003252      0x50f Drivers/STM32F4xx_HAL_Driver/Src/stm32f4xx_hal_adc_ex.o
 .debug_line    0x0000000000003761      0x574 Drivers/STM32F4xx_HAL_Driver/Src/stm32f4xx_hal_can.o
 .debug_line    0x0000000000003cd5      0x3b9 Drivers/STM32F4xx_HAL_Driver/Src/stm32f4xx_hal_cortex.o
 .debug_line    0x000000000000408e      0x404 Drivers/STM32F4xx_HAL_Driver/Src/stm32f4xx_hal_dac.o
 .debug_line    0x0000000000004492      0x304 Drivers/STM32F4xx_HAL_Driver/Src/stm32f4xx_hal_dac_ex.o
 .debug_line    0x0000000000004796      0x4c3 Drivers/STM32F4xx_HAL_Driver/Src/stm32f4xx_hal_dma.o
 .debug_line    0x0000000000004c59      0x8df Drivers/STM32F4xx_HAL_Driver/Src/stm32f4xx_hal_dma_ex.o
 .debug_line    0x0000000000005538      0x322 Drivers/STM32F4xx_HAL_Driver/Src/stm32f4xx_hal_exti.o
 .debug_line    0x000000000000585a      0x3b4 Drivers/STM32F4xx_HAL_Driver/Src/stm32f4xx_hal_flash.o
 .debug_line    0x0000000000005c0e      0x38e Drivers/STM32F4xx_HAL_Driver/Src/stm32f4xx_hal_flash_ex.o
 .debug_line    0x0000000000005f9c      0x1cf Drivers/STM32F4xx_HAL_Driver/Src/stm32f4xx_hal_flash_ramfunc.o
 .debug_line    0x000000000000616b      0x386 Drivers/STM32F4xx_HAL_Driver/Src/stm32f4xx_hal_gpio.o
 .debug_line    0x00000000000064f1     0x1485 Drivers/STM32F4xx_HAL_Driver/Src/stm32f4xx_hal_i2c.o
 .debug_line    0x0000000000007976      0x1cf Drivers/STM32F4xx_HAL_Driver/Src/stm32f4xx_hal_i2c_ex.o
 .debug_line    0x0000000000007b45      0x688 Drivers/STM32F4xx_HAL_Driver/Src/stm32f4xx_hal_pcd.o
 .debug_line    0x00000000000081cd      0x298 Drivers/STM32F4xx_HAL_Driver/Src/stm32f4xx_hal_pcd_ex.o
 .debug_line    0x0000000000008465      0x2b3 Drivers/STM32F4xx_HAL_Driver/Src/stm32f4xx_hal_pwr.o
 .debug_line    0x0000000000008718      0x277 Drivers/STM32F4xx_HAL_Driver/Src/stm32f4xx_hal_pwr_ex.o
 .debug_line    0x000000000000898f      0x462 Drivers/STM32F4xx_HAL_Driver/Src/stm32f4xx_hal_rcc.o
 .debug_line    0x0000000000008df1      0x330 Drivers/STM32F4xx_HAL_Driver/Src/stm32f4xx_hal_rcc_ex.o
 .debug_line    0x0000000000009121      0xf5b Drivers/STM32F4xx_HAL_Driver/Src/stm32f4xx_hal_tim.o
 .debug_line    0x000000000000a07c      0x6cb Drivers/STM32F4xx_HAL_Driver/Src/stm32f4xx_hal_tim_ex.o
 .debug_line    0x000000000000a747      0x6bf Drivers/STM32F4xx_HAL_Driver/Src/stm32f4xx_ll_usb.o
 .debug_line    0x000000000000ae06      0x551 Middlewares/ST/STM32_USB_Device_Library/Class/CDC/Src/usbd_cdc.o
 .debug_line    0x000000000000b357      0x4cd Middlewares/ST/STM32_USB_Device_Library/Core/Src/usbd_core.o
 .debug_line    0x000000000000b824      0x5bf Middlewares/ST/STM32_USB_Device_Library/Core/Src/usbd_ctlreq.o
 .debug_line    0x000000000000bde3      0x39b Middlewares/ST/STM32_USB_Device_Library/Core/Src/usbd_ioreq.o
 .debug_line    0x000000000000c17e     0x126e Middlewares/Third_Party/FreeRTOS/Source/CMSIS_RTOS_V2/cmsis_os2.o
 .debug_line    0x000000000000d3ec      0x122 Middlewares/Third_Party/FreeRTOS/Source/croutine.o
 .debug_line    0x000000000000d50e      0x4ed Middlewares/Third_Party/FreeRTOS/Source/event_groups.o
 .debug_line    0x000000000000d9fb      0x347 Middlewares/Third_Party/FreeRTOS/Source/list.o
 .debug_line    0x000000000000dd42      0x345 Middlewares/Third_Party/FreeRTOS/Source/portable/GCC/ARM_CM4F/port.o
 .debug_line    0x000000000000e087      0x3d4 Middlewares/Third_Party/FreeRTOS/Source/portable/MemMang/heap_4.o
 .debug_line    0x000000000000e45b      0x9a7 Middlewares/Third_Party/FreeRTOS/Source/queue.o
 .debug_line    0x000000000000ee02      0x665 Middlewares/Third_Party/FreeRTOS/Source/stream_buffer.o
 .debug_line    0x000000000000f467      0xcd4 Middlewares/Third_Party/FreeRTOS/Source/tasks.o
 .debug_line    0x000000000001013b      0x55c Middlewares/Third_Party/FreeRTOS/Source/timers.o
 .debug_line    0x0000000000010697      0x350 Source/Tasks/analog.o
 .debug_line    0x00000000000109e7      0x7af Source/Tasks/communication.o
 .debug_line    0x0000000000011196      0x4da Source/Timers/envelope.o
 .debug_line    0x0000000000011670      0x2fa Source/Timers/heartbeat.o
 .debug_line    0x000000000001196a      0x44e Source/bmp280.o
 .debug_line    0x0000000000011db8      0x16e Source/config.o
 .debug_line    0x0000000000011f26      0x12a Source/crc32.o
 .debug_line    0x0000000000012050      0x3f4 Source/debug.o
 .debug_line    0x0000000000012444      0x2c1 Source/hub.o
 .debug_line    0x0000000000012705      0x31c Source/hx711.o
 .debug_line    0x0000000000012a21      0x3dc Source/stepper.o
 .debug_line    0x0000000000012dfd      0x405 USB_DEVICE/App/usb_device.o
 .debug_line    0x0000000000013202      0x4fd USB_DEVICE/App/usbd_cdc_if.o
 .debug_line    0x00000000000136ff      0x3b8 USB_DEVICE/App/usbd_desc.o
 .debug_line    0x0000000000013ab7      0x4d5 USB_DEVICE/Target/usbd_conf.o
 .debug_line    0x0000000000013f8c       0x7f startup/startup_stm32f407xx.o

.debug_str      0x0000000000000000     0xc350
 .debug_str     0x0000000000000000      0x7d9 Core/src/adc.o
                                        0x8cd (size before relaxing)
 .debug_str     0x00000000000007d9      0x259 Core/src/can.o
                                        0x6db (size before relaxing)
 .debug_str     0x0000000000000a32      0x6d7 Core/src/dac.o
                                        0xd4a (size before relaxing)
 .debug_str     0x0000000000001109       0x1e Core/src/dma.o
                                        0x885 (size before relaxing)
 .debug_str     0x0000000000001127      0xcd1 Core/src/freertos.o
                                       0x1373 (size before relaxing)
 .debug_str     0x0000000000001df8       0x4e Core/src/gpio.o
                                        0x944 (size before relaxing)
 .debug_str     0x0000000000001e46       0x58 Core/src/i2c.o
                                        0x95c (size before relaxing)
 .debug_str     0x0000000000001e9e      0x940 Core/src/main.o
                                       0x189f (size before relaxing)
 .debug_str     0x00000000000027de       0x2c Core/src/stm32f4xx_hal_msp.o
                                        0x880 (size before relaxing)
 .debug_str     0x000000000000280a       0xfe Core/src/stm32f4xx_hal_timebase_tim.o
                                        0xe00 (size before relaxing)
 .debug_str     0x0000000000002908      0x437 Core/src/stm32f4xx_it.o
                                        0xbf0 (size before relaxing)
 .debug_str     0x0000000000002d3f      0x249 Core/src/syscalls.o
                                        0x83f (size before relaxing)
 .debug_str     0x0000000000002f88       0xaf Core/src/system_stm32f4xx.o
                                        0x3f9 (size before relaxing)
 .debug_str     0x0000000000003037      0x2ad Core/src/tim.o
                                       0x10be (size before relaxing)
 .debug_str     0x00000000000032e4      0x220 Drivers/STM32F4xx_HAL_Driver/Src/stm32f4xx_hal.o
                                        0xb8b (size before relaxing)
 .debug_str     0x0000000000003504      0x2a9 Drivers/STM32F4xx_HAL_Driver/Src/stm32f4xx_hal_adc.o
                                        0x9f3 (size before relaxing)
 .debug_str     0x00000000000037ad      0x2df Drivers/STM32F4xx_HAL_Driver/Src/stm32f4xx_hal_adc_ex.o
                                        0xa56 (size before relaxing)
 .debug_str     0x0000000000003a8c      0x550 Drivers/STM32F4xx_HAL_Driver/Src/stm32f4xx_hal_can.o
                                        0xafb (size before relaxing)
 .debug_str     0x0000000000003fdc      0x41d Drivers/STM32F4xx_HAL_Driver/Src/stm32f4xx_hal_cortex.o
                                        0xcca (size before relaxing)
 .debug_str     0x00000000000043f9      0x1a8 Drivers/STM32F4xx_HAL_Driver/Src/stm32f4xx_hal_dac.o
                                        0x872 (size before relaxing)
 .debug_str     0x00000000000045a1      0x143 Drivers/STM32F4xx_HAL_Driver/Src/stm32f4xx_hal_dac_ex.o
                                        0x762 (size before relaxing)
 .debug_str     0x00000000000046e4      0x2a9 Drivers/STM32F4xx_HAL_Driver/Src/stm32f4xx_hal_dma.o
                                        0x816 (size before relaxing)
 .debug_str     0x000000000000498d      0x104 Drivers/STM32F4xx_HAL_Driver/Src/stm32f4xx_hal_dma_ex.o
                                        0x60b (size before relaxing)
 .debug_str     0x0000000000004a91      0x1e4 Drivers/STM32F4xx_HAL_Driver/Src/stm32f4xx_hal_exti.o
                                        0x4a3 (size before relaxing)
 .debug_str     0x0000000000004c75      0x2ae Drivers/STM32F4xx_HAL_Driver/Src/stm32f4xx_hal_flash.o
                                        0x5fa (size before relaxing)
 .debug_str     0x0000000000004f23      0x226 Drivers/STM32F4xx_HAL_Driver/Src/stm32f4xx_hal_flash_ex.o
                                        0x64a (size before relaxing)
 .debug_str     0x0000000000005149       0x42 Drivers/STM32F4xx_HAL_Driver/Src/stm32f4xx_hal_flash_ramfunc.o
                                        0x290 (size before relaxing)
 .debug_str     0x000000000000518b       0xda Drivers/STM32F4xx_HAL_Driver/Src/stm32f4xx_hal_gpio.o
                                        0x590 (size before relaxing)
 .debug_str     0x0000000000005265      0x837 Drivers/STM32F4xx_HAL_Driver/Src/stm32f4xx_hal_i2c.o
                                       0x10c5 (size before relaxing)
 .debug_str     0x0000000000005a9c       0x3b Drivers/STM32F4xx_HAL_Driver/Src/stm32f4xx_hal_i2c_ex.o
                                        0x289 (size before relaxing)
 .debug_str     0x0000000000005ad7      0x79d Drivers/STM32F4xx_HAL_Driver/Src/stm32f4xx_hal_pcd.o
                                        0xdd6 (size before relaxing)
 .debug_str     0x0000000000006274      0x150 Drivers/STM32F4xx_HAL_Driver/Src/stm32f4xx_hal_pcd_ex.o
                                        0x7ae (size before relaxing)
 .debug_str     0x00000000000063c4      0x206 Drivers/STM32F4xx_HAL_Driver/Src/stm32f4xx_hal_pwr.o
                                        0x5e7 (size before relaxing)
 .debug_str     0x00000000000065ca       0xe5 Drivers/STM32F4xx_HAL_Driver/Src/stm32f4xx_hal_pwr_ex.o
                                        0x4b4 (size before relaxing)
 .debug_str     0x00000000000066af      0x133 Drivers/STM32F4xx_HAL_Driver/Src/stm32f4xx_hal_rcc.o
                                        0x76e (size before relaxing)
 .debug_str     0x00000000000067e2      0x171 Drivers/STM32F4xx_HAL_Driver/Src/stm32f4xx_hal_rcc_ex.o
                                        0x55c (size before relaxing)
 .debug_str     0x0000000000006953      0xc61 Drivers/STM32F4xx_HAL_Driver/Src/stm32f4xx_hal_tim.o
                                       0x156d (size before relaxing)
 .debug_str     0x00000000000075b4      0x426 Drivers/STM32F4xx_HAL_Driver/Src/stm32f4xx_hal_tim_ex.o
                                        0xd85 (size before relaxing)
 .debug_str     0x00000000000079da      0x426 Drivers/STM32F4xx_HAL_Driver/Src/stm32f4xx_ll_usb.o
                                        0xcec (size before relaxing)
 .debug_str     0x0000000000007e00      0x62a Middlewares/ST/STM32_USB_Device_Library/Class/CDC/Src/usbd_cdc.o
                                       0x10fc (size before relaxing)
 .debug_str     0x000000000000842a      0x2a0 Middlewares/ST/STM32_USB_Device_Library/Core/Src/usbd_core.o
                                        0xd0b (size before relaxing)
 .debug_str     0x00000000000086ca      0x117 Middlewares/ST/STM32_USB_Device_Library/Core/Src/usbd_ctlreq.o
                                        0xc25 (size before relaxing)
 .debug_str     0x00000000000087e1       0x51 Middlewares/ST/STM32_USB_Device_Library/Core/Src/usbd_ioreq.o
                                        0xb52 (size before relaxing)
 .debug_str     0x0000000000008832     0x1168 Middlewares/Third_Party/FreeRTOS/Source/CMSIS_RTOS_V2/cmsis_os2.o
                                       0x1d15 (size before relaxing)
 .debug_str     0x000000000000999a       0x36 Middlewares/Third_Party/FreeRTOS/Source/croutine.o
                                        0x1bb (size before relaxing)
 .debug_str     0x00000000000099d0      0x3e6 Middlewares/Third_Party/FreeRTOS/Source/event_groups.o
                                        0xc31 (size before relaxing)
 .debug_str     0x0000000000009db6       0xaf Middlewares/Third_Party/FreeRTOS/Source/list.o
                                        0x713 (size before relaxing)
 .debug_str     0x0000000000009e65      0x22b Middlewares/Third_Party/FreeRTOS/Source/portable/GCC/ARM_CM4F/port.o
                                        0x462 (size before relaxing)
 .debug_str     0x000000000000a090      0x1e1 Middlewares/Third_Party/FreeRTOS/Source/portable/MemMang/heap_4.o
                                        0x7fc (size before relaxing)
 .debug_str     0x000000000000a271      0x582 Middlewares/Third_Party/FreeRTOS/Source/queue.o
                                       0x1080 (size before relaxing)
 .debug_str     0x000000000000a7f3      0x513 Middlewares/Third_Party/FreeRTOS/Source/stream_buffer.o
                                        0xd53 (size before relaxing)
 .debug_str     0x000000000000ad06      0x8a3 Middlewares/Third_Party/FreeRTOS/Source/tasks.o
                                       0x17ad (size before relaxing)
 .debug_str     0x000000000000b5a9      0x4b7 Middlewares/Third_Party/FreeRTOS/Source/timers.o
                                       0x1017 (size before relaxing)
 .debug_str     0x000000000000ba60       0x2e Source/Tasks/analog.o
                                        0x7bb (size before relaxing)
 .debug_str     0x000000000000ba8e      0x1c9 Source/Tasks/communication.o
                                       0x1292 (size before relaxing)
 .debug_str     0x000000000000bc57       0x2c Source/Timers/envelope.o
                                        0xb1b (size before relaxing)
 .debug_str     0x000000000000bc83       0x48 Source/Timers/heartbeat.o
                                        0xc2e (size before relaxing)
 .debug_str     0x000000000000bccb      0x19c Source/bmp280.o
                                        0xcb3 (size before relaxing)
 .debug_str     0x000000000000be67       0x13 Source/config.o
                                        0x255 (size before relaxing)
 .debug_str     0x000000000000be7a       0x25 Source/crc32.o
                                        0x1b2 (size before relaxing)
 .debug_str     0x000000000000be9f       0x69 Source/debug.o
                                        0xb08 (size before relaxing)
 .debug_str     0x000000000000bf08       0x66 Source/hub.o
                                        0x437 (size before relaxing)
 .debug_str     0x000000000000bf6e       0x75 Source/hx711.o
                                        0x4ff (size before relaxing)
 .debug_str     0x000000000000bfe3       0xcb Source/stepper.o
                                        0x93e (size before relaxing)
 .debug_str     0x000000000000c0ae       0x34 USB_DEVICE/App/usb_device.o
                                        0xb20 (size before relaxing)
 .debug_str     0x000000000000c0e2       0x96 USB_DEVICE/App/usbd_cdc_if.o
                                        0xd10 (size before relaxing)
 .debug_str     0x000000000000c178      0x170 USB_DEVICE/App/usbd_desc.o
                                        0x92b (size before relaxing)
 .debug_str     0x000000000000c2e8       0x68 USB_DEVICE/Target/usbd_conf.o
                                       0x19dc (size before relaxing)

.comment        0x0000000000000000       0x7c
 .comment       0x0000000000000000       0x7c Core/src/adc.o
                                         0x7d (size before relaxing)
 .comment       0x000000000000007c       0x7d Core/src/can.o
 .comment       0x000000000000007c       0x7d Core/src/dac.o
 .comment       0x000000000000007c       0x7d Core/src/dma.o
 .comment       0x000000000000007c       0x7d Core/src/freertos.o
 .comment       0x000000000000007c       0x7d Core/src/gpio.o
 .comment       0x000000000000007c       0x7d Core/src/i2c.o
 .comment       0x000000000000007c       0x7d Core/src/main.o
 .comment       0x000000000000007c       0x7d Core/src/stm32f4xx_hal_msp.o
 .comment       0x000000000000007c       0x7d Core/src/stm32f4xx_hal_timebase_tim.o
 .comment       0x000000000000007c       0x7d Core/src/stm32f4xx_it.o
 .comment       0x000000000000007c       0x7d Core/src/syscalls.o
 .comment       0x000000000000007c       0x7d Core/src/system_stm32f4xx.o
 .comment       0x000000000000007c       0x7d Core/src/tim.o
 .comment       0x000000000000007c       0x7d Drivers/STM32F4xx_HAL_Driver/Src/stm32f4xx_hal.o
 .comment       0x000000000000007c       0x7d Drivers/STM32F4xx_HAL_Driver/Src/stm32f4xx_hal_adc.o
 .comment       0x000000000000007c       0x7d Drivers/STM32F4xx_HAL_Driver/Src/stm32f4xx_hal_adc_ex.o
 .comment       0x000000000000007c       0x7d Drivers/STM32F4xx_HAL_Driver/Src/stm32f4xx_hal_can.o
 .comment       0x000000000000007c       0x7d Drivers/STM32F4xx_HAL_Driver/Src/stm32f4xx_hal_cortex.o
 .comment       0x000000000000007c       0x7d Drivers/STM32F4xx_HAL_Driver/Src/stm32f4xx_hal_dac.o
 .comment       0x000000000000007c       0x7d Drivers/STM32F4xx_HAL_Driver/Src/stm32f4xx_hal_dac_ex.o
 .comment       0x000000000000007c       0x7d Drivers/STM32F4xx_HAL_Driver/Src/stm32f4xx_hal_dma.o
 .comment       0x000000000000007c       0x7d Drivers/STM32F4xx_HAL_Driver/Src/stm32f4xx_hal_dma_ex.o
 .comment       0x000000000000007c       0x7d Drivers/STM32F4xx_HAL_Driver/Src/stm32f4xx_hal_exti.o
 .comment       0x000000000000007c       0x7d Drivers/STM32F4xx_HAL_Driver/Src/stm32f4xx_hal_flash.o
 .comment       0x000000000000007c       0x7d Drivers/STM32F4xx_HAL_Driver/Src/stm32f4xx_hal_flash_ex.o
 .comment       0x000000000000007c       0x7d Drivers/STM32F4xx_HAL_Driver/Src/stm32f4xx_hal_flash_ramfunc.o
 .comment       0x000000000000007c       0x7d Drivers/STM32F4xx_HAL_Driver/Src/stm32f4xx_hal_gpio.o
 .comment       0x000000000000007c       0x7d Drivers/STM32F4xx_HAL_Driver/Src/stm32f4xx_hal_i2c.o
 .comment       0x000000000000007c       0x7d Drivers/STM32F4xx_HAL_Driver/Src/stm32f4xx_hal_i2c_ex.o
 .comment       0x000000000000007c       0x7d Drivers/STM32F4xx_HAL_Driver/Src/stm32f4xx_hal_pcd.o
 .comment       0x000000000000007c       0x7d Drivers/STM32F4xx_HAL_Driver/Src/stm32f4xx_hal_pcd_ex.o
 .comment       0x000000000000007c       0x7d Drivers/STM32F4xx_HAL_Driver/Src/stm32f4xx_hal_pwr.o
 .comment       0x000000000000007c       0x7d Drivers/STM32F4xx_HAL_Driver/Src/stm32f4xx_hal_pwr_ex.o
 .comment       0x000000000000007c       0x7d Drivers/STM32F4xx_HAL_Driver/Src/stm32f4xx_hal_rcc.o
 .comment       0x000000000000007c       0x7d Drivers/STM32F4xx_HAL_Driver/Src/stm32f4xx_hal_rcc_ex.o
 .comment       0x000000000000007c       0x7d Drivers/STM32F4xx_HAL_Driver/Src/stm32f4xx_hal_tim.o
 .comment       0x000000000000007c       0x7d Drivers/STM32F4xx_HAL_Driver/Src/stm32f4xx_hal_tim_ex.o
 .comment       0x000000000000007c       0x7d Drivers/STM32F4xx_HAL_Driver/Src/stm32f4xx_ll_usb.o
 .comment       0x000000000000007c       0x7d Middlewares/ST/STM32_USB_Device_Library/Class/CDC/Src/usbd_cdc.o
 .comment       0x000000000000007c       0x7d Middlewares/ST/STM32_USB_Device_Library/Core/Src/usbd_core.o
 .comment       0x000000000000007c       0x7d Middlewares/ST/STM32_USB_Device_Library/Core/Src/usbd_ctlreq.o
 .comment       0x000000000000007c       0x7d Middlewares/ST/STM32_USB_Device_Library/Core/Src/usbd_ioreq.o
 .comment       0x000000000000007c       0x7d Middlewares/Third_Party/FreeRTOS/Source/CMSIS_RTOS_V2/cmsis_os2.o
 .comment       0x000000000000007c       0x7d Middlewares/Third_Party/FreeRTOS/Source/croutine.o
 .comment       0x000000000000007c       0x7d Middlewares/Third_Party/FreeRTOS/Source/event_groups.o
 .comment       0x000000000000007c       0x7d Middlewares/Third_Party/FreeRTOS/Source/list.o
 .comment       0x000000000000007c       0x7d Middlewares/Third_Party/FreeRTOS/Source/portable/GCC/ARM_CM4F/port.o
 .comment       0x000000000000007c       0x7d Middlewares/Third_Party/FreeRTOS/Source/portable/MemMang/heap_4.o
 .comment       0x000000000000007c       0x7d Middlewares/Third_Party/FreeRTOS/Source/queue.o
 .comment       0x000000000000007c       0x7d Middlewares/Third_Party/FreeRTOS/Source/stream_buffer.o
 .comment       0x000000000000007c       0x7d Middlewares/Third_Party/FreeRTOS/Source/tasks.o
 .comment       0x000000000000007c       0x7d Middlewares/Third_Party/FreeRTOS/Source/timers.o
 .comment       0x000000000000007c       0x7d Source/Tasks/analog.o
 .comment       0x000000000000007c       0x7d Source/Tasks/communication.o
 .comment       0x000000000000007c       0x7d Source/Timers/envelope.o
 .comment       0x000000000000007c       0x7d Source/Timers/heartbeat.o
 .comment       0x000000000000007c       0x7d Source/bmp280.o
 .comment       0x000000000000007c       0x7d Source/config.o
 .comment       0x000000000000007c       0x7d Source/crc32.o
 .comment       0x000000000000007c       0x7d Source/debug.o
 .comment       0x000000000000007c       0x7d Source/hub.o
 .comment       0x000000000000007c       0x7d Source/hx711.o
 .comment       0x000000000000007c       0x7d Source/stepper.o
 .comment       0x000000000000007c       0x7d USB_DEVICE/App/usb_device.o
 .comment       0x000000000000007c       0x7d USB_DEVICE/App/usbd_cdc_if.o
 .comment       0x000000000000007c       0x7d USB_DEVICE/App/usbd_desc.o
 .comment       0x000000000000007c       0x7d USB_DEVICE/Target/usbd_conf.o

.debug_frame    0x0000000000000000     0x744c
 .debug_frame   0x0000000000000000       0x6c Core/src/adc.o
 .debug_frame   0x000000000000006c       0x60 Core/src/can.o
 .debug_frame   0x00000000000000cc       0x68 Core/src/dac.o
 .debug_frame   0x0000000000000134       0x2c Core/src/dma.o
 .debug_frame   0x0000000000000160       0x74 Core/src/freertos.o
 .debug_frame   0x00000000000001d4       0x34 Core/src/gpio.o
 .debug_frame   0x0000000000000208       0x64 Core/src/i2c.o
 .debug_frame   0x000000000000026c       0x74 Core/src/main.o
 .debug_frame   0x00000000000002e0       0x2c Core/src/stm32f4xx_hal_msp.o
 .debug_frame   0x000000000000030c       0x50 Core/src/stm32f4xx_hal_timebase_tim.o
 .debug_frame   0x000000000000035c       0xb8 Core/src/stm32f4xx_it.o
 .debug_frame   0x0000000000000414      0x1ac Core/src/syscalls.o
 .debug_frame   0x00000000000005c0       0x30 Core/src/system_stm32f4xx.o
 .debug_frame   0x00000000000005f0       0xd0 Core/src/tim.o
 .debug_frame   0x00000000000006c0      0x1ec Drivers/STM32F4xx_HAL_Driver/Src/stm32f4xx_hal.o
 .debug_frame   0x00000000000008ac      0x27c Drivers/STM32F4xx_HAL_Driver/Src/stm32f4xx_hal_adc.o
 .debug_frame   0x0000000000000b28      0x18c Drivers/STM32F4xx_HAL_Driver/Src/stm32f4xx_hal_adc_ex.o
 .debug_frame   0x0000000000000cb4      0x2e4 Drivers/STM32F4xx_HAL_Driver/Src/stm32f4xx_hal_can.o
 .debug_frame   0x0000000000000f98      0x15c Drivers/STM32F4xx_HAL_Driver/Src/stm32f4xx_hal_cortex.o
 .debug_frame   0x00000000000010f4      0x1f0 Drivers/STM32F4xx_HAL_Driver/Src/stm32f4xx_hal_dac.o
 .debug_frame   0x00000000000012e4       0xf8 Drivers/STM32F4xx_HAL_Driver/Src/stm32f4xx_hal_dac_ex.o
 .debug_frame   0x00000000000013dc      0x17c Drivers/STM32F4xx_HAL_Driver/Src/stm32f4xx_hal_dma.o
 .debug_frame   0x0000000000001558       0x74 Drivers/STM32F4xx_HAL_Driver/Src/stm32f4xx_hal_dma_ex.o
 .debug_frame   0x00000000000015cc       0xe4 Drivers/STM32F4xx_HAL_Driver/Src/stm32f4xx_hal_exti.o
 .debug_frame   0x00000000000016b0      0x164 Drivers/STM32F4xx_HAL_Driver/Src/stm32f4xx_hal_flash.o
 .debug_frame   0x0000000000001814      0x160 Drivers/STM32F4xx_HAL_Driver/Src/stm32f4xx_hal_flash_ex.o
 .debug_frame   0x0000000000001974       0xd8 Drivers/STM32F4xx_HAL_Driver/Src/stm32f4xx_hal_gpio.o
 .debug_frame   0x0000000000001a4c      0x8f8 Drivers/STM32F4xx_HAL_Driver/Src/stm32f4xx_hal_i2c.o
 .debug_frame   0x0000000000002344      0x350 Drivers/STM32F4xx_HAL_Driver/Src/stm32f4xx_hal_pcd.o
 .debug_frame   0x0000000000002694       0x5c Drivers/STM32F4xx_HAL_Driver/Src/stm32f4xx_hal_pcd_ex.o
 .debug_frame   0x00000000000026f0      0x128 Drivers/STM32F4xx_HAL_Driver/Src/stm32f4xx_hal_pwr.o
 .debug_frame   0x0000000000002818       0x90 Drivers/STM32F4xx_HAL_Driver/Src/stm32f4xx_hal_pwr_ex.o
 .debug_frame   0x00000000000028a8      0x174 Drivers/STM32F4xx_HAL_Driver/Src/stm32f4xx_hal_rcc.o
 .debug_frame   0x0000000000002a1c       0xa4 Drivers/STM32F4xx_HAL_Driver/Src/stm32f4xx_hal_rcc_ex.o
 .debug_frame   0x0000000000002ac0      0xa88 Drivers/STM32F4xx_HAL_Driver/Src/stm32f4xx_hal_tim.o
 .debug_frame   0x0000000000003548      0x3b4 Drivers/STM32F4xx_HAL_Driver/Src/stm32f4xx_hal_tim_ex.o
 .debug_frame   0x00000000000038fc      0x49c Drivers/STM32F4xx_HAL_Driver/Src/stm32f4xx_ll_usb.o
 .debug_frame   0x0000000000003d98      0x168 Middlewares/ST/STM32_USB_Device_Library/Class/CDC/Src/usbd_cdc.o
 .debug_frame   0x0000000000003f00      0x1c0 Middlewares/ST/STM32_USB_Device_Library/Core/Src/usbd_core.o
 .debug_frame   0x00000000000040c0      0x178 Middlewares/ST/STM32_USB_Device_Library/Core/Src/usbd_ctlreq.o
 .debug_frame   0x0000000000004238       0xb8 Middlewares/ST/STM32_USB_Device_Library/Core/Src/usbd_ioreq.o
 .debug_frame   0x00000000000042f0      0x7a0 Middlewares/Third_Party/FreeRTOS/Source/CMSIS_RTOS_V2/cmsis_os2.o
 .debug_frame   0x0000000000004a90      0x1a4 Middlewares/Third_Party/FreeRTOS/Source/event_groups.o
 .debug_frame   0x0000000000004c34       0x6c Middlewares/Third_Party/FreeRTOS/Source/list.o
 .debug_frame   0x0000000000004ca0      0x100 Middlewares/Third_Party/FreeRTOS/Source/portable/GCC/ARM_CM4F/port.o
 .debug_frame   0x0000000000004da0       0xac Middlewares/Third_Party/FreeRTOS/Source/portable/MemMang/heap_4.o
 .debug_frame   0x0000000000004e4c      0x450 Middlewares/Third_Party/FreeRTOS/Source/queue.o
 .debug_frame   0x000000000000529c      0x350 Middlewares/Third_Party/FreeRTOS/Source/stream_buffer.o
 .debug_frame   0x00000000000055ec      0x6a0 Middlewares/Third_Party/FreeRTOS/Source/tasks.o
 .debug_frame   0x0000000000005c8c      0x2cc Middlewares/Third_Party/FreeRTOS/Source/timers.o
 .debug_frame   0x0000000000005f58       0x2c Source/Tasks/analog.o
 .debug_frame   0x0000000000005f84       0x64 Source/Tasks/communication.o
 .debug_frame   0x0000000000005fe8       0x28 Source/Timers/envelope.o
 .debug_frame   0x0000000000006010       0x28 Source/Timers/heartbeat.o
 .debug_frame   0x0000000000006038      0x158 Source/bmp280.o
 .debug_frame   0x0000000000006190       0x2c Source/crc32.o
 .debug_frame   0x00000000000061bc       0x2c Source/debug.o
 .debug_frame   0x00000000000061e8       0x88 Source/hub.o
 .debug_frame   0x0000000000006270       0xfc Source/hx711.o
 .debug_frame   0x000000000000636c       0x8c Source/stepper.o
 .debug_frame   0x00000000000063f8       0x28 USB_DEVICE/App/usb_device.o
 .debug_frame   0x0000000000006420       0xa4 USB_DEVICE/App/usbd_cdc_if.o
 .debug_frame   0x00000000000064c4       0xe0 USB_DEVICE/App/usbd_desc.o
 .debug_frame   0x00000000000065a4      0x2c4 USB_DEVICE/Target/usbd_conf.o
 .debug_frame   0x0000000000006868       0x20 /opt/Atollic_TrueSTUDIO_for_STM32_x86_64_9.3.0/ARMTools/bin/../lib/gcc/arm-atollic-eabi/6.3.1/../../../../arm-atollic-eabi/lib/armv7e-m/fpu/libc.a(lib_a-errno.o)
 .debug_frame   0x0000000000006888       0x2c /opt/Atollic_TrueSTUDIO_for_STM32_x86_64_9.3.0/ARMTools/bin/../lib/gcc/arm-atollic-eabi/6.3.1/../../../../arm-atollic-eabi/lib/armv7e-m/fpu/libc.a(lib_a-init.o)
 .debug_frame   0x00000000000068b4       0x30 /opt/Atollic_TrueSTUDIO_for_STM32_x86_64_9.3.0/ARMTools/bin/../lib/gcc/arm-atollic-eabi/6.3.1/../../../../arm-atollic-eabi/lib/armv7e-m/fpu/libc.a(lib_a-malloc.o)
 .debug_frame   0x00000000000068e4       0x40 /opt/Atollic_TrueSTUDIO_for_STM32_x86_64_9.3.0/ARMTools/bin/../lib/gcc/arm-atollic-eabi/6.3.1/../../../../arm-atollic-eabi/lib/armv7e-m/fpu/libc.a(lib_a-mallocr.o)
 .debug_frame   0x0000000000006924       0x28 /opt/Atollic_TrueSTUDIO_for_STM32_x86_64_9.3.0/ARMTools/bin/../lib/gcc/arm-atollic-eabi/6.3.1/../../../../arm-atollic-eabi/lib/armv7e-m/fpu/libc.a(lib_a-memcpy-stub.o)
 .debug_frame   0x000000000000694c       0x20 /opt/Atollic_TrueSTUDIO_for_STM32_x86_64_9.3.0/ARMTools/bin/../lib/gcc/arm-atollic-eabi/6.3.1/../../../../arm-atollic-eabi/lib/armv7e-m/fpu/libc.a(lib_a-memset.o)
 .debug_frame   0x000000000000696c       0x30 /opt/Atollic_TrueSTUDIO_for_STM32_x86_64_9.3.0/ARMTools/bin/../lib/gcc/arm-atollic-eabi/6.3.1/../../../../arm-atollic-eabi/lib/armv7e-m/fpu/libc.a(lib_a-mlock.o)
 .debug_frame   0x000000000000699c       0x2c /opt/Atollic_TrueSTUDIO_for_STM32_x86_64_9.3.0/ARMTools/bin/../lib/gcc/arm-atollic-eabi/6.3.1/../../../../arm-atollic-eabi/lib/armv7e-m/fpu/libc.a(lib_a-sbrkr.o)
 .debug_frame   0x00000000000069c8       0x70 /opt/Atollic_TrueSTUDIO_for_STM32_x86_64_9.3.0/ARMTools/bin/../lib/gcc/arm-atollic-eabi/6.3.1/../../../../arm-atollic-eabi/lib/armv7e-m/fpu/libc.a(lib_a-sprintf.o)
 .debug_frame   0x0000000000006a38       0x20 /opt/Atollic_TrueSTUDIO_for_STM32_x86_64_9.3.0/ARMTools/bin/../lib/gcc/arm-atollic-eabi/6.3.1/../../../../arm-atollic-eabi/lib/armv7e-m/fpu/libc.a(lib_a-strcpy.o)
 .debug_frame   0x0000000000006a58       0x40 /opt/Atollic_TrueSTUDIO_for_STM32_x86_64_9.3.0/ARMTools/bin/../lib/gcc/arm-atollic-eabi/6.3.1/../../../../arm-atollic-eabi/lib/armv7e-m/fpu/libc.a(lib_a-svfprintf.o)
 .debug_frame   0x0000000000006a98       0x6c /opt/Atollic_TrueSTUDIO_for_STM32_x86_64_9.3.0/ARMTools/bin/../lib/gcc/arm-atollic-eabi/6.3.1/../../../../arm-atollic-eabi/lib/armv7e-m/fpu/libc.a(lib_a-dtoa.o)
 .debug_frame   0x0000000000006b04       0x60 /opt/Atollic_TrueSTUDIO_for_STM32_x86_64_9.3.0/ARMTools/bin/../lib/gcc/arm-atollic-eabi/6.3.1/../../../../arm-atollic-eabi/lib/armv7e-m/fpu/libc.a(lib_a-freer.o)
 .debug_frame   0x0000000000006b64       0x40 /opt/Atollic_TrueSTUDIO_for_STM32_x86_64_9.3.0/ARMTools/bin/../lib/gcc/arm-atollic-eabi/6.3.1/../../../../arm-atollic-eabi/lib/armv7e-m/fpu/libc.a(lib_a-localeconv.o)
 .debug_frame   0x0000000000006ba4       0xb0 /opt/Atollic_TrueSTUDIO_for_STM32_x86_64_9.3.0/ARMTools/bin/../lib/gcc/arm-atollic-eabi/6.3.1/../../../../arm-atollic-eabi/lib/armv7e-m/fpu/libc.a(lib_a-lock.o)
 .debug_frame   0x0000000000006c54      0x240 /opt/Atollic_TrueSTUDIO_for_STM32_x86_64_9.3.0/ARMTools/bin/../lib/gcc/arm-atollic-eabi/6.3.1/../../../../arm-atollic-eabi/lib/armv7e-m/fpu/libc.a(lib_a-mprec.o)
 .debug_frame   0x0000000000006e94       0x5c /opt/Atollic_TrueSTUDIO_for_STM32_x86_64_9.3.0/ARMTools/bin/../lib/gcc/arm-atollic-eabi/6.3.1/../../../../arm-atollic-eabi/lib/armv7e-m/fpu/libc.a(lib_a-reent.o)
 .debug_frame   0x0000000000006ef0       0x6c /opt/Atollic_TrueSTUDIO_for_STM32_x86_64_9.3.0/ARMTools/bin/../lib/gcc/arm-atollic-eabi/6.3.1/../../../../arm-atollic-eabi/lib/armv7e-m/fpu/libc.a(lib_a-svfiprintf.o)
 .debug_frame   0x0000000000006f5c       0x28 /opt/Atollic_TrueSTUDIO_for_STM32_x86_64_9.3.0/ARMTools/bin/../lib/gcc/arm-atollic-eabi/6.3.1/../../../../arm-atollic-eabi/lib/armv7e-m/fpu/libc.a(lib_a-callocr.o)
 .debug_frame   0x0000000000006f84       0x68 /opt/Atollic_TrueSTUDIO_for_STM32_x86_64_9.3.0/ARMTools/bin/../lib/gcc/arm-atollic-eabi/6.3.1/../../../../arm-atollic-eabi/lib/armv7e-m/fpu/libc.a(lib_a-locale.o)
 .debug_frame   0x0000000000006fec       0x48 /opt/Atollic_TrueSTUDIO_for_STM32_x86_64_9.3.0/ARMTools/bin/../lib/gcc/arm-atollic-eabi/6.3.1/../../../../arm-atollic-eabi/lib/armv7e-m/fpu/libc.a(lib_a-mbtowc_r.o)
 .debug_frame   0x0000000000007034       0x28 /opt/Atollic_TrueSTUDIO_for_STM32_x86_64_9.3.0/ARMTools/bin/../lib/gcc/arm-atollic-eabi/6.3.1/../../../../arm-atollic-eabi/lib/armv7e-m/fpu/libc.a(lib_a-memmove.o)
 .debug_frame   0x000000000000705c       0x50 /opt/Atollic_TrueSTUDIO_for_STM32_x86_64_9.3.0/ARMTools/bin/../lib/gcc/arm-atollic-eabi/6.3.1/../../../../arm-atollic-eabi/lib/armv7e-m/fpu/libc.a(lib_a-reallocr.o)
 .debug_frame   0x00000000000070ac       0x20 /opt/Atollic_TrueSTUDIO_for_STM32_x86_64_9.3.0/ARMTools/bin/../lib/gcc/arm-atollic-eabi/6.3.1/../../../../arm-atollic-eabi/lib/armv7e-m/fpu/libc.a(lib_a-strcmp.o)
 .debug_frame   0x00000000000070cc       0x3c /opt/Atollic_TrueSTUDIO_for_STM32_x86_64_9.3.0/ARMTools/bin/../lib/gcc/arm-atollic-eabi/6.3.1/../../../../arm-atollic-eabi/lib/armv7e-m/fpu/libc.a(lib_a-wctomb_r.o)
 .debug_frame   0x0000000000007108       0x4c /opt/Atollic_TrueSTUDIO_for_STM32_x86_64_9.3.0/ARMTools/bin/../lib/gcc/arm-atollic-eabi/6.3.1/../../../../arm-atollic-eabi/lib/armv7e-m/fpu/libm.a(lib_a-w_sqrt.o)
 .debug_frame   0x0000000000007154       0x30 /opt/Atollic_TrueSTUDIO_for_STM32_x86_64_9.3.0/ARMTools/bin/../lib/gcc/arm-atollic-eabi/6.3.1/../../../../arm-atollic-eabi/lib/armv7e-m/fpu/libm.a(lib_a-e_sqrt.o)
 .debug_frame   0x0000000000007184       0x20 /opt/Atollic_TrueSTUDIO_for_STM32_x86_64_9.3.0/ARMTools/bin/../lib/gcc/arm-atollic-eabi/6.3.1/../../../../arm-atollic-eabi/lib/armv7e-m/fpu/libm.a(lib_a-s_matherr.o)
 .debug_frame   0x00000000000071a4       0xac /opt/Atollic_TrueSTUDIO_for_STM32_x86_64_9.3.0/ARMTools/bin/../lib/gcc/arm-atollic-eabi/6.3.1/armv7e-m/fpu/libgcc.a(_arm_addsubdf3.o)
 .debug_frame   0x0000000000007250       0x50 /opt/Atollic_TrueSTUDIO_for_STM32_x86_64_9.3.0/ARMTools/bin/../lib/gcc/arm-atollic-eabi/6.3.1/armv7e-m/fpu/libgcc.a(_arm_muldivdf3.o)
 .debug_frame   0x00000000000072a0       0xc4 /opt/Atollic_TrueSTUDIO_for_STM32_x86_64_9.3.0/ARMTools/bin/../lib/gcc/arm-atollic-eabi/6.3.1/armv7e-m/fpu/libgcc.a(_arm_cmpdf2.o)
 .debug_frame   0x0000000000007364       0x20 /opt/Atollic_TrueSTUDIO_for_STM32_x86_64_9.3.0/ARMTools/bin/../lib/gcc/arm-atollic-eabi/6.3.1/armv7e-m/fpu/libgcc.a(_arm_unorddf2.o)
 .debug_frame   0x0000000000007384       0x24 /opt/Atollic_TrueSTUDIO_for_STM32_x86_64_9.3.0/ARMTools/bin/../lib/gcc/arm-atollic-eabi/6.3.1/armv7e-m/fpu/libgcc.a(_arm_fixdfsi.o)
 .debug_frame   0x00000000000073a8       0x44 /opt/Atollic_TrueSTUDIO_for_STM32_x86_64_9.3.0/ARMTools/bin/../lib/gcc/arm-atollic-eabi/6.3.1/armv7e-m/fpu/libgcc.a(_aeabi_ldivmod.o)
 .debug_frame   0x00000000000073ec       0x2c /opt/Atollic_TrueSTUDIO_for_STM32_x86_64_9.3.0/ARMTools/bin/../lib/gcc/arm-atollic-eabi/6.3.1/armv7e-m/fpu/libgcc.a(_aeabi_uldivmod.o)
 .debug_frame   0x0000000000007418       0x34 /opt/Atollic_TrueSTUDIO_for_STM32_x86_64_9.3.0/ARMTools/bin/../lib/gcc/arm-atollic-eabi/6.3.1/armv7e-m/fpu/libgcc.a(_udivmoddi4.o)

.debug_ranges   0x0000000000000000      0x440
 .debug_ranges  0x0000000000000000       0x60 Drivers/STM32F4xx_HAL_Driver/Src/stm32f4xx_hal_cortex.o
 .debug_ranges  0x0000000000000060       0x18 Drivers/STM32F4xx_HAL_Driver/Src/stm32f4xx_hal_i2c.o
 .debug_ranges  0x0000000000000078       0x18 Drivers/STM32F4xx_HAL_Driver/Src/stm32f4xx_hal_rcc.o
 .debug_ranges  0x0000000000000090       0x20 Middlewares/Third_Party/FreeRTOS/Source/event_groups.o
 .debug_ranges  0x00000000000000b0       0xf0 Middlewares/Third_Party/FreeRTOS/Source/queue.o
 .debug_ranges  0x00000000000001a0       0xe8 Middlewares/Third_Party/FreeRTOS/Source/tasks.o
 .debug_ranges  0x0000000000000288       0x60 Source/Tasks/communication.o
 .debug_ranges  0x00000000000002e8       0xc0 Source/bmp280.o
 .debug_ranges  0x00000000000003a8       0x18 Source/crc32.o
 .debug_ranges  0x00000000000003c0       0x18 Source/debug.o
 .debug_ranges  0x00000000000003d8       0x48 Source/hx711.o
 .debug_ranges  0x0000000000000420       0x20 startup/startup_stm32f407xx.o

Cross Reference Table

Symbol                                            File
ADCBuffer                                         Core/src/adc.o
                                                  Source/Tasks/analog.o
                                                  Core/src/freertos.o
ADC_IRQHandler                                    startup/startup_stm32f407xx.o
AHBPrescTable                                     Core/src/system_stm32f4xx.o
                                                  Drivers/STM32F4xx_HAL_Driver/Src/stm32f4xx_hal_rcc.o
APBPrescTable                                     Core/src/system_stm32f4xx.o
                                                  Drivers/STM32F4xx_HAL_Driver/Src/stm32f4xx_hal_rcc.o
BusFault_Handler                                  Core/src/stm32f4xx_it.o
CAN1_RX0_IRQHandler                               startup/startup_stm32f407xx.o
CAN1_RX1_IRQHandler                               startup/startup_stm32f407xx.o
CAN1_SCE_IRQHandler                               startup/startup_stm32f407xx.o
CAN1_TX_IRQHandler                                startup/startup_stm32f407xx.o
CAN2_RX0_IRQHandler                               startup/startup_stm32f407xx.o
CAN2_RX1_IRQHandler                               startup/startup_stm32f407xx.o
CAN2_SCE_IRQHandler                               startup/startup_stm32f407xx.o
CAN2_TX_IRQHandler                                startup/startup_stm32f407xx.o
CDC_Transmit_Busy                                 USB_DEVICE/App/usbd_cdc_if.o
CDC_Transmit_FS                                   USB_DEVICE/App/usbd_cdc_if.o
                                                  Source/Tasks/communication.o
DAC_DMAConvCpltCh2                                Drivers/STM32F4xx_HAL_Driver/Src/stm32f4xx_hal_dac_ex.o
                                                  Drivers/STM32F4xx_HAL_Driver/Src/stm32f4xx_hal_dac.o
DAC_DMAErrorCh2                                   Drivers/STM32F4xx_HAL_Driver/Src/stm32f4xx_hal_dac_ex.o
                                                  Drivers/STM32F4xx_HAL_Driver/Src/stm32f4xx_hal_dac.o
DAC_DMAHalfConvCpltCh2                            Drivers/STM32F4xx_HAL_Driver/Src/stm32f4xx_hal_dac_ex.o
                                                  Drivers/STM32F4xx_HAL_Driver/Src/stm32f4xx_hal_dac.o
DCMI_IRQHandler                                   startup/startup_stm32f407xx.o
DMA1_Stream0_IRQHandler                           startup/startup_stm32f407xx.o
DMA1_Stream1_IRQHandler                           startup/startup_stm32f407xx.o
DMA1_Stream2_IRQHandler                           startup/startup_stm32f407xx.o
DMA1_Stream3_IRQHandler                           startup/startup_stm32f407xx.o
DMA1_Stream4_IRQHandler                           startup/startup_stm32f407xx.o
DMA1_Stream5_IRQHandler                           startup/startup_stm32f407xx.o
DMA1_Stream6_IRQHandler                           startup/startup_stm32f407xx.o
DMA1_Stream7_IRQHandler                           startup/startup_stm32f407xx.o
DMA2_Stream0_IRQHandler                           Core/src/stm32f4xx_it.o
DMA2_Stream1_IRQHandler                           startup/startup_stm32f407xx.o
DMA2_Stream2_IRQHandler                           startup/startup_stm32f407xx.o
DMA2_Stream3_IRQHandler                           startup/startup_stm32f407xx.o
DMA2_Stream4_IRQHandler                           startup/startup_stm32f407xx.o
DMA2_Stream5_IRQHandler                           startup/startup_stm32f407xx.o
DMA2_Stream6_IRQHandler                           startup/startup_stm32f407xx.o
DMA2_Stream7_IRQHandler                           startup/startup_stm32f407xx.o
DebugMon_Handler                                  Core/src/stm32f4xx_it.o
DefaultConfig                                     Source/config.o
                                                  Core/src/main.o
DefaultHandle                                     Core/src/freertos.o
Default_Handler                                   startup/startup_stm32f407xx.o
Default_attributes                                Core/src/freertos.o
ETH_IRQHandler                                    startup/startup_stm32f407xx.o
ETH_WKUP_IRQHandler                               startup/startup_stm32f407xx.o
EXTI0_IRQHandler                                  startup/startup_stm32f407xx.o
EXTI15_10_IRQHandler                              startup/startup_stm32f407xx.o
EXTI1_IRQHandler                                  startup/startup_stm32f407xx.o
EXTI2_IRQHandler                                  startup/startup_stm32f407xx.o
EXTI3_IRQHandler                                  startup/startup_stm32f407xx.o
EXTI4_IRQHandler                                  startup/startup_stm32f407xx.o
EXTI9_5_IRQHandler                                Source/hx711.o
Error_Handler                                     Core/src/main.o
                                                  USB_DEVICE/Target/usbd_conf.o
                                                  USB_DEVICE/App/usb_device.o
                                                  Core/src/tim.o
                                                  Core/src/i2c.o
                                                  Core/src/dac.o
                                                  Core/src/can.o
                                                  Core/src/adc.o
FIFO                                              Source/Tasks/communication.o
                                                  USB_DEVICE/App/usbd_cdc_if.o
FLASH_Erase_Sector                                Drivers/STM32F4xx_HAL_Driver/Src/stm32f4xx_hal_flash_ex.o
                                                  Source/Tasks/communication.o
                                                  Drivers/STM32F4xx_HAL_Driver/Src/stm32f4xx_hal_flash.o
FLASH_FlushCaches                                 Drivers/STM32F4xx_HAL_Driver/Src/stm32f4xx_hal_flash_ex.o
                                                  Drivers/STM32F4xx_HAL_Driver/Src/stm32f4xx_hal_flash.o
FLASH_IRQHandler                                  startup/startup_stm32f407xx.o
FLASH_WaitForLastOperation                        Drivers/STM32F4xx_HAL_Driver/Src/stm32f4xx_hal_flash.o
                                                  Drivers/STM32F4xx_HAL_Driver/Src/stm32f4xx_hal_flash_ex.o
FPU_IRQHandler                                    startup/startup_stm32f407xx.o
FSMC_IRQHandler                                   startup/startup_stm32f407xx.o
FS_Desc                                           USB_DEVICE/App/usbd_desc.o
                                                  USB_DEVICE/App/usb_device.o
HAL_ADCEx_InjectedConfigChannel                   Drivers/STM32F4xx_HAL_Driver/Src/stm32f4xx_hal_adc_ex.o
HAL_ADCEx_InjectedConvCpltCallback                Drivers/STM32F4xx_HAL_Driver/Src/stm32f4xx_hal_adc_ex.o
                                                  Drivers/STM32F4xx_HAL_Driver/Src/stm32f4xx_hal_adc.o
HAL_ADCEx_InjectedGetValue                        Drivers/STM32F4xx_HAL_Driver/Src/stm32f4xx_hal_adc_ex.o
HAL_ADCEx_InjectedPollForConversion               Drivers/STM32F4xx_HAL_Driver/Src/stm32f4xx_hal_adc_ex.o
HAL_ADCEx_InjectedStart                           Drivers/STM32F4xx_HAL_Driver/Src/stm32f4xx_hal_adc_ex.o
HAL_ADCEx_InjectedStart_IT                        Drivers/STM32F4xx_HAL_Driver/Src/stm32f4xx_hal_adc_ex.o
HAL_ADCEx_InjectedStop                            Drivers/STM32F4xx_HAL_Driver/Src/stm32f4xx_hal_adc_ex.o
HAL_ADCEx_InjectedStop_IT                         Drivers/STM32F4xx_HAL_Driver/Src/stm32f4xx_hal_adc_ex.o
HAL_ADCEx_MultiModeConfigChannel                  Drivers/STM32F4xx_HAL_Driver/Src/stm32f4xx_hal_adc_ex.o
HAL_ADCEx_MultiModeGetValue                       Drivers/STM32F4xx_HAL_Driver/Src/stm32f4xx_hal_adc_ex.o
HAL_ADCEx_MultiModeStart_DMA                      Drivers/STM32F4xx_HAL_Driver/Src/stm32f4xx_hal_adc_ex.o
HAL_ADCEx_MultiModeStop_DMA                       Drivers/STM32F4xx_HAL_Driver/Src/stm32f4xx_hal_adc_ex.o
HAL_ADC_AnalogWDGConfig                           Drivers/STM32F4xx_HAL_Driver/Src/stm32f4xx_hal_adc.o
HAL_ADC_ConfigChannel                             Drivers/STM32F4xx_HAL_Driver/Src/stm32f4xx_hal_adc.o
                                                  Core/src/adc.o
HAL_ADC_ConvCpltCallback                          Drivers/STM32F4xx_HAL_Driver/Src/stm32f4xx_hal_adc.o
                                                  Drivers/STM32F4xx_HAL_Driver/Src/stm32f4xx_hal_adc_ex.o
HAL_ADC_ConvHalfCpltCallback                      Drivers/STM32F4xx_HAL_Driver/Src/stm32f4xx_hal_adc.o
                                                  Drivers/STM32F4xx_HAL_Driver/Src/stm32f4xx_hal_adc_ex.o
HAL_ADC_DeInit                                    Drivers/STM32F4xx_HAL_Driver/Src/stm32f4xx_hal_adc.o
HAL_ADC_ErrorCallback                             Drivers/STM32F4xx_HAL_Driver/Src/stm32f4xx_hal_adc.o
                                                  Drivers/STM32F4xx_HAL_Driver/Src/stm32f4xx_hal_adc_ex.o
HAL_ADC_GetError                                  Drivers/STM32F4xx_HAL_Driver/Src/stm32f4xx_hal_adc.o
HAL_ADC_GetState                                  Drivers/STM32F4xx_HAL_Driver/Src/stm32f4xx_hal_adc.o
HAL_ADC_GetValue                                  Drivers/STM32F4xx_HAL_Driver/Src/stm32f4xx_hal_adc.o
HAL_ADC_IRQHandler                                Drivers/STM32F4xx_HAL_Driver/Src/stm32f4xx_hal_adc.o
HAL_ADC_Init                                      Drivers/STM32F4xx_HAL_Driver/Src/stm32f4xx_hal_adc.o
                                                  Core/src/adc.o
HAL_ADC_LevelOutOfWindowCallback                  Drivers/STM32F4xx_HAL_Driver/Src/stm32f4xx_hal_adc.o
HAL_ADC_MspDeInit                                 Core/src/adc.o
HAL_ADC_MspInit                                   Core/src/adc.o
HAL_ADC_PollForConversion                         Drivers/STM32F4xx_HAL_Driver/Src/stm32f4xx_hal_adc.o
HAL_ADC_PollForEvent                              Drivers/STM32F4xx_HAL_Driver/Src/stm32f4xx_hal_adc.o
HAL_ADC_Start                                     Drivers/STM32F4xx_HAL_Driver/Src/stm32f4xx_hal_adc.o
HAL_ADC_Start_DMA                                 Drivers/STM32F4xx_HAL_Driver/Src/stm32f4xx_hal_adc.o
                                                  Core/src/freertos.o
HAL_ADC_Start_IT                                  Drivers/STM32F4xx_HAL_Driver/Src/stm32f4xx_hal_adc.o
HAL_ADC_Stop                                      Drivers/STM32F4xx_HAL_Driver/Src/stm32f4xx_hal_adc.o
HAL_ADC_Stop_DMA                                  Drivers/STM32F4xx_HAL_Driver/Src/stm32f4xx_hal_adc.o
HAL_ADC_Stop_IT                                   Drivers/STM32F4xx_HAL_Driver/Src/stm32f4xx_hal_adc.o
HAL_CAN_AbortTxRequest                            Drivers/STM32F4xx_HAL_Driver/Src/stm32f4xx_hal_can.o
HAL_CAN_ActivateNotification                      Drivers/STM32F4xx_HAL_Driver/Src/stm32f4xx_hal_can.o
HAL_CAN_AddTxMessage                              Drivers/STM32F4xx_HAL_Driver/Src/stm32f4xx_hal_can.o
HAL_CAN_ConfigFilter                              Drivers/STM32F4xx_HAL_Driver/Src/stm32f4xx_hal_can.o
HAL_CAN_DeInit                                    Drivers/STM32F4xx_HAL_Driver/Src/stm32f4xx_hal_can.o
HAL_CAN_DeactivateNotification                    Drivers/STM32F4xx_HAL_Driver/Src/stm32f4xx_hal_can.o
HAL_CAN_ErrorCallback                             Drivers/STM32F4xx_HAL_Driver/Src/stm32f4xx_hal_can.o
HAL_CAN_GetError                                  Drivers/STM32F4xx_HAL_Driver/Src/stm32f4xx_hal_can.o
HAL_CAN_GetRxFifoFillLevel                        Drivers/STM32F4xx_HAL_Driver/Src/stm32f4xx_hal_can.o
HAL_CAN_GetRxMessage                              Drivers/STM32F4xx_HAL_Driver/Src/stm32f4xx_hal_can.o
HAL_CAN_GetState                                  Drivers/STM32F4xx_HAL_Driver/Src/stm32f4xx_hal_can.o
HAL_CAN_GetTxMailboxesFreeLevel                   Drivers/STM32F4xx_HAL_Driver/Src/stm32f4xx_hal_can.o
HAL_CAN_GetTxTimestamp                            Drivers/STM32F4xx_HAL_Driver/Src/stm32f4xx_hal_can.o
HAL_CAN_IRQHandler                                Drivers/STM32F4xx_HAL_Driver/Src/stm32f4xx_hal_can.o
HAL_CAN_Init                                      Drivers/STM32F4xx_HAL_Driver/Src/stm32f4xx_hal_can.o
                                                  Core/src/can.o
HAL_CAN_IsSleepActive                             Drivers/STM32F4xx_HAL_Driver/Src/stm32f4xx_hal_can.o
HAL_CAN_IsTxMessagePending                        Drivers/STM32F4xx_HAL_Driver/Src/stm32f4xx_hal_can.o
HAL_CAN_MspDeInit                                 Core/src/can.o
HAL_CAN_MspInit                                   Core/src/can.o
HAL_CAN_RequestSleep                              Drivers/STM32F4xx_HAL_Driver/Src/stm32f4xx_hal_can.o
HAL_CAN_ResetError                                Drivers/STM32F4xx_HAL_Driver/Src/stm32f4xx_hal_can.o
HAL_CAN_RxFifo0FullCallback                       Drivers/STM32F4xx_HAL_Driver/Src/stm32f4xx_hal_can.o
HAL_CAN_RxFifo0MsgPendingCallback                 Drivers/STM32F4xx_HAL_Driver/Src/stm32f4xx_hal_can.o
HAL_CAN_RxFifo1FullCallback                       Drivers/STM32F4xx_HAL_Driver/Src/stm32f4xx_hal_can.o
HAL_CAN_RxFifo1MsgPendingCallback                 Drivers/STM32F4xx_HAL_Driver/Src/stm32f4xx_hal_can.o
HAL_CAN_SleepCallback                             Drivers/STM32F4xx_HAL_Driver/Src/stm32f4xx_hal_can.o
HAL_CAN_Start                                     Drivers/STM32F4xx_HAL_Driver/Src/stm32f4xx_hal_can.o
HAL_CAN_Stop                                      Drivers/STM32F4xx_HAL_Driver/Src/stm32f4xx_hal_can.o
HAL_CAN_TxMailbox0AbortCallback                   Drivers/STM32F4xx_HAL_Driver/Src/stm32f4xx_hal_can.o
HAL_CAN_TxMailbox0CompleteCallback                Drivers/STM32F4xx_HAL_Driver/Src/stm32f4xx_hal_can.o
HAL_CAN_TxMailbox1AbortCallback                   Drivers/STM32F4xx_HAL_Driver/Src/stm32f4xx_hal_can.o
HAL_CAN_TxMailbox1CompleteCallback                Drivers/STM32F4xx_HAL_Driver/Src/stm32f4xx_hal_can.o
HAL_CAN_TxMailbox2AbortCallback                   Drivers/STM32F4xx_HAL_Driver/Src/stm32f4xx_hal_can.o
HAL_CAN_TxMailbox2CompleteCallback                Drivers/STM32F4xx_HAL_Driver/Src/stm32f4xx_hal_can.o
HAL_CAN_WakeUp                                    Drivers/STM32F4xx_HAL_Driver/Src/stm32f4xx_hal_can.o
HAL_CAN_WakeUpFromRxMsgCallback                   Drivers/STM32F4xx_HAL_Driver/Src/stm32f4xx_hal_can.o
HAL_DACEx_ConvCpltCallbackCh2                     Drivers/STM32F4xx_HAL_Driver/Src/stm32f4xx_hal_dac_ex.o
HAL_DACEx_ConvHalfCpltCallbackCh2                 Drivers/STM32F4xx_HAL_Driver/Src/stm32f4xx_hal_dac_ex.o
HAL_DACEx_DMAUnderrunCallbackCh2                  Drivers/STM32F4xx_HAL_Driver/Src/stm32f4xx_hal_dac_ex.o
                                                  Drivers/STM32F4xx_HAL_Driver/Src/stm32f4xx_hal_dac.o
HAL_DACEx_DualGetValue                            Drivers/STM32F4xx_HAL_Driver/Src/stm32f4xx_hal_dac_ex.o
HAL_DACEx_DualSetValue                            Drivers/STM32F4xx_HAL_Driver/Src/stm32f4xx_hal_dac_ex.o
HAL_DACEx_ErrorCallbackCh2                        Drivers/STM32F4xx_HAL_Driver/Src/stm32f4xx_hal_dac_ex.o
HAL_DACEx_NoiseWaveGenerate                       Drivers/STM32F4xx_HAL_Driver/Src/stm32f4xx_hal_dac_ex.o
HAL_DACEx_TriangleWaveGenerate                    Drivers/STM32F4xx_HAL_Driver/Src/stm32f4xx_hal_dac_ex.o
HAL_DAC_ConfigChannel                             Drivers/STM32F4xx_HAL_Driver/Src/stm32f4xx_hal_dac.o
                                                  Core/src/dac.o
HAL_DAC_ConvCpltCallbackCh1                       Drivers/STM32F4xx_HAL_Driver/Src/stm32f4xx_hal_dac.o
HAL_DAC_ConvHalfCpltCallbackCh1                   Drivers/STM32F4xx_HAL_Driver/Src/stm32f4xx_hal_dac.o
HAL_DAC_DMAUnderrunCallbackCh1                    Drivers/STM32F4xx_HAL_Driver/Src/stm32f4xx_hal_dac.o
HAL_DAC_DeInit                                    Drivers/STM32F4xx_HAL_Driver/Src/stm32f4xx_hal_dac.o
HAL_DAC_ErrorCallbackCh1                          Drivers/STM32F4xx_HAL_Driver/Src/stm32f4xx_hal_dac.o
HAL_DAC_GetError                                  Drivers/STM32F4xx_HAL_Driver/Src/stm32f4xx_hal_dac.o
HAL_DAC_GetState                                  Drivers/STM32F4xx_HAL_Driver/Src/stm32f4xx_hal_dac.o
HAL_DAC_GetValue                                  Drivers/STM32F4xx_HAL_Driver/Src/stm32f4xx_hal_dac.o
HAL_DAC_IRQHandler                                Drivers/STM32F4xx_HAL_Driver/Src/stm32f4xx_hal_dac.o
                                                  Core/src/stm32f4xx_it.o
HAL_DAC_Init                                      Drivers/STM32F4xx_HAL_Driver/Src/stm32f4xx_hal_dac.o
                                                  Core/src/dac.o
HAL_DAC_MspDeInit                                 Core/src/dac.o
HAL_DAC_MspInit                                   Core/src/dac.o
HAL_DAC_SetValue                                  Drivers/STM32F4xx_HAL_Driver/Src/stm32f4xx_hal_dac.o
HAL_DAC_Start                                     Drivers/STM32F4xx_HAL_Driver/Src/stm32f4xx_hal_dac.o
HAL_DAC_Start_DMA                                 Drivers/STM32F4xx_HAL_Driver/Src/stm32f4xx_hal_dac.o
HAL_DAC_Stop                                      Drivers/STM32F4xx_HAL_Driver/Src/stm32f4xx_hal_dac.o
HAL_DAC_Stop_DMA                                  Drivers/STM32F4xx_HAL_Driver/Src/stm32f4xx_hal_dac.o
HAL_DBGMCU_DisableDBGSleepMode                    Drivers/STM32F4xx_HAL_Driver/Src/stm32f4xx_hal.o
HAL_DBGMCU_DisableDBGStandbyMode                  Drivers/STM32F4xx_HAL_Driver/Src/stm32f4xx_hal.o
HAL_DBGMCU_DisableDBGStopMode                     Drivers/STM32F4xx_HAL_Driver/Src/stm32f4xx_hal.o
HAL_DBGMCU_EnableDBGSleepMode                     Drivers/STM32F4xx_HAL_Driver/Src/stm32f4xx_hal.o
HAL_DBGMCU_EnableDBGStandbyMode                   Drivers/STM32F4xx_HAL_Driver/Src/stm32f4xx_hal.o
                                                  Core/src/main.o
HAL_DBGMCU_EnableDBGStopMode                      Drivers/STM32F4xx_HAL_Driver/Src/stm32f4xx_hal.o
                                                  Core/src/main.o
HAL_DMAEx_ChangeMemory                            Drivers/STM32F4xx_HAL_Driver/Src/stm32f4xx_hal_dma_ex.o
HAL_DMAEx_MultiBufferStart                        Drivers/STM32F4xx_HAL_Driver/Src/stm32f4xx_hal_dma_ex.o
HAL_DMAEx_MultiBufferStart_IT                     Drivers/STM32F4xx_HAL_Driver/Src/stm32f4xx_hal_dma_ex.o
HAL_DMA_Abort                                     Drivers/STM32F4xx_HAL_Driver/Src/stm32f4xx_hal_dma.o
                                                  Drivers/STM32F4xx_HAL_Driver/Src/stm32f4xx_hal_dac.o
                                                  Drivers/STM32F4xx_HAL_Driver/Src/stm32f4xx_hal_adc_ex.o
                                                  Drivers/STM32F4xx_HAL_Driver/Src/stm32f4xx_hal_adc.o
HAL_DMA_Abort_IT                                  Drivers/STM32F4xx_HAL_Driver/Src/stm32f4xx_hal_dma.o
                                                  Drivers/STM32F4xx_HAL_Driver/Src/stm32f4xx_hal_tim_ex.o
                                                  Drivers/STM32F4xx_HAL_Driver/Src/stm32f4xx_hal_tim.o
                                                  Drivers/STM32F4xx_HAL_Driver/Src/stm32f4xx_hal_i2c.o
HAL_DMA_DeInit                                    Drivers/STM32F4xx_HAL_Driver/Src/stm32f4xx_hal_dma.o
                                                  Core/src/adc.o
HAL_DMA_GetError                                  Drivers/STM32F4xx_HAL_Driver/Src/stm32f4xx_hal_dma.o
                                                  Drivers/STM32F4xx_HAL_Driver/Src/stm32f4xx_hal_i2c.o
HAL_DMA_GetState                                  Drivers/STM32F4xx_HAL_Driver/Src/stm32f4xx_hal_dma.o
                                                  Drivers/STM32F4xx_HAL_Driver/Src/stm32f4xx_hal_i2c.o
HAL_DMA_IRQHandler                                Drivers/STM32F4xx_HAL_Driver/Src/stm32f4xx_hal_dma.o
                                                  Core/src/stm32f4xx_it.o
HAL_DMA_Init                                      Drivers/STM32F4xx_HAL_Driver/Src/stm32f4xx_hal_dma.o
                                                  Core/src/adc.o
HAL_DMA_PollForTransfer                           Drivers/STM32F4xx_HAL_Driver/Src/stm32f4xx_hal_dma.o
HAL_DMA_RegisterCallback                          Drivers/STM32F4xx_HAL_Driver/Src/stm32f4xx_hal_dma.o
HAL_DMA_Start                                     Drivers/STM32F4xx_HAL_Driver/Src/stm32f4xx_hal_dma.o
HAL_DMA_Start_IT                                  Drivers/STM32F4xx_HAL_Driver/Src/stm32f4xx_hal_dma.o
                                                  Drivers/STM32F4xx_HAL_Driver/Src/stm32f4xx_hal_tim_ex.o
                                                  Drivers/STM32F4xx_HAL_Driver/Src/stm32f4xx_hal_tim.o
                                                  Drivers/STM32F4xx_HAL_Driver/Src/stm32f4xx_hal_i2c.o
                                                  Drivers/STM32F4xx_HAL_Driver/Src/stm32f4xx_hal_dac.o
                                                  Drivers/STM32F4xx_HAL_Driver/Src/stm32f4xx_hal_adc_ex.o
                                                  Drivers/STM32F4xx_HAL_Driver/Src/stm32f4xx_hal_adc.o
HAL_DMA_UnRegisterCallback                        Drivers/STM32F4xx_HAL_Driver/Src/stm32f4xx_hal_dma.o
HAL_DeInit                                        Drivers/STM32F4xx_HAL_Driver/Src/stm32f4xx_hal.o
HAL_Delay                                         Drivers/STM32F4xx_HAL_Driver/Src/stm32f4xx_hal.o
                                                  USB_DEVICE/Target/usbd_conf.o
                                                  Source/hx711.o
                                                  Drivers/STM32F4xx_HAL_Driver/Src/stm32f4xx_ll_usb.o
HAL_DisableCompensationCell                       Drivers/STM32F4xx_HAL_Driver/Src/stm32f4xx_hal.o
HAL_EXTI_ClearConfigLine                          Drivers/STM32F4xx_HAL_Driver/Src/stm32f4xx_hal_exti.o
HAL_EXTI_ClearPending                             Drivers/STM32F4xx_HAL_Driver/Src/stm32f4xx_hal_exti.o
HAL_EXTI_GenerateSWI                              Drivers/STM32F4xx_HAL_Driver/Src/stm32f4xx_hal_exti.o
HAL_EXTI_GetConfigLine                            Drivers/STM32F4xx_HAL_Driver/Src/stm32f4xx_hal_exti.o
HAL_EXTI_GetHandle                                Drivers/STM32F4xx_HAL_Driver/Src/stm32f4xx_hal_exti.o
HAL_EXTI_GetPending                               Drivers/STM32F4xx_HAL_Driver/Src/stm32f4xx_hal_exti.o
HAL_EXTI_IRQHandler                               Drivers/STM32F4xx_HAL_Driver/Src/stm32f4xx_hal_exti.o
HAL_EXTI_RegisterCallback                         Drivers/STM32F4xx_HAL_Driver/Src/stm32f4xx_hal_exti.o
HAL_EXTI_SetConfigLine                            Drivers/STM32F4xx_HAL_Driver/Src/stm32f4xx_hal_exti.o
HAL_EnableCompensationCell                        Drivers/STM32F4xx_HAL_Driver/Src/stm32f4xx_hal.o
HAL_FLASHEx_Erase                                 Drivers/STM32F4xx_HAL_Driver/Src/stm32f4xx_hal_flash_ex.o
HAL_FLASHEx_Erase_IT                              Drivers/STM32F4xx_HAL_Driver/Src/stm32f4xx_hal_flash_ex.o
HAL_FLASHEx_OBGetConfig                           Drivers/STM32F4xx_HAL_Driver/Src/stm32f4xx_hal_flash_ex.o
HAL_FLASHEx_OBProgram                             Drivers/STM32F4xx_HAL_Driver/Src/stm32f4xx_hal_flash_ex.o
HAL_FLASH_EndOfOperationCallback                  Drivers/STM32F4xx_HAL_Driver/Src/stm32f4xx_hal_flash.o
HAL_FLASH_GetError                                Drivers/STM32F4xx_HAL_Driver/Src/stm32f4xx_hal_flash.o
HAL_FLASH_IRQHandler                              Drivers/STM32F4xx_HAL_Driver/Src/stm32f4xx_hal_flash.o
HAL_FLASH_Lock                                    Drivers/STM32F4xx_HAL_Driver/Src/stm32f4xx_hal_flash.o
                                                  Source/Tasks/communication.o
HAL_FLASH_OB_Launch                               Drivers/STM32F4xx_HAL_Driver/Src/stm32f4xx_hal_flash.o
HAL_FLASH_OB_Lock                                 Drivers/STM32F4xx_HAL_Driver/Src/stm32f4xx_hal_flash.o
HAL_FLASH_OB_Unlock                               Drivers/STM32F4xx_HAL_Driver/Src/stm32f4xx_hal_flash.o
HAL_FLASH_OperationErrorCallback                  Drivers/STM32F4xx_HAL_Driver/Src/stm32f4xx_hal_flash.o
HAL_FLASH_Program                                 Drivers/STM32F4xx_HAL_Driver/Src/stm32f4xx_hal_flash.o
                                                  Source/Tasks/communication.o
HAL_FLASH_Program_IT                              Drivers/STM32F4xx_HAL_Driver/Src/stm32f4xx_hal_flash.o
HAL_FLASH_Unlock                                  Drivers/STM32F4xx_HAL_Driver/Src/stm32f4xx_hal_flash.o
                                                  Source/Tasks/communication.o
HAL_GPIO_DeInit                                   Drivers/STM32F4xx_HAL_Driver/Src/stm32f4xx_hal_gpio.o
                                                  USB_DEVICE/Target/usbd_conf.o
                                                  Core/src/tim.o
                                                  Core/src/i2c.o
                                                  Core/src/dac.o
                                                  Core/src/can.o
                                                  Core/src/adc.o
HAL_GPIO_EXTI_Callback                            Drivers/STM32F4xx_HAL_Driver/Src/stm32f4xx_hal_gpio.o
HAL_GPIO_EXTI_IRQHandler                          Drivers/STM32F4xx_HAL_Driver/Src/stm32f4xx_hal_gpio.o
HAL_GPIO_Init                                     Drivers/STM32F4xx_HAL_Driver/Src/stm32f4xx_hal_gpio.o
                                                  USB_DEVICE/Target/usbd_conf.o
                                                  Drivers/STM32F4xx_HAL_Driver/Src/stm32f4xx_hal_rcc.o
                                                  Core/src/tim.o
                                                  Core/src/i2c.o
                                                  Core/src/gpio.o
                                                  Core/src/dac.o
                                                  Core/src/can.o
                                                  Core/src/adc.o
HAL_GPIO_LockPin                                  Drivers/STM32F4xx_HAL_Driver/Src/stm32f4xx_hal_gpio.o
HAL_GPIO_ReadPin                                  Drivers/STM32F4xx_HAL_Driver/Src/stm32f4xx_hal_gpio.o
                                                  Source/hx711.o
HAL_GPIO_TogglePin                                Drivers/STM32F4xx_HAL_Driver/Src/stm32f4xx_hal_gpio.o
                                                  Source/Timers/heartbeat.o
HAL_GPIO_WritePin                                 Drivers/STM32F4xx_HAL_Driver/Src/stm32f4xx_hal_gpio.o
                                                  Source/hx711.o
                                                  Source/Timers/heartbeat.o
                                                  Core/src/gpio.o
HAL_GetDEVID                                      Drivers/STM32F4xx_HAL_Driver/Src/stm32f4xx_hal.o
HAL_GetHalVersion                                 Drivers/STM32F4xx_HAL_Driver/Src/stm32f4xx_hal.o
HAL_GetREVID                                      Drivers/STM32F4xx_HAL_Driver/Src/stm32f4xx_hal.o
HAL_GetTick                                       Drivers/STM32F4xx_HAL_Driver/Src/stm32f4xx_hal.o
                                                  Drivers/STM32F4xx_HAL_Driver/Src/stm32f4xx_hal_rcc_ex.o
                                                  Drivers/STM32F4xx_HAL_Driver/Src/stm32f4xx_hal_rcc.o
                                                  Drivers/STM32F4xx_HAL_Driver/Src/stm32f4xx_hal_pwr_ex.o
                                                  Drivers/STM32F4xx_HAL_Driver/Src/stm32f4xx_hal_i2c.o
                                                  Drivers/STM32F4xx_HAL_Driver/Src/stm32f4xx_hal_flash.o
                                                  Drivers/STM32F4xx_HAL_Driver/Src/stm32f4xx_hal_dma.o
                                                  Drivers/STM32F4xx_HAL_Driver/Src/stm32f4xx_hal_can.o
                                                  Drivers/STM32F4xx_HAL_Driver/Src/stm32f4xx_hal_adc_ex.o
                                                  Drivers/STM32F4xx_HAL_Driver/Src/stm32f4xx_hal_adc.o
HAL_GetTickFreq                                   Drivers/STM32F4xx_HAL_Driver/Src/stm32f4xx_hal.o
HAL_GetTickPrio                                   Drivers/STM32F4xx_HAL_Driver/Src/stm32f4xx_hal.o
HAL_GetUIDw0                                      Drivers/STM32F4xx_HAL_Driver/Src/stm32f4xx_hal.o
HAL_GetUIDw1                                      Drivers/STM32F4xx_HAL_Driver/Src/stm32f4xx_hal.o
HAL_GetUIDw2                                      Drivers/STM32F4xx_HAL_Driver/Src/stm32f4xx_hal.o
HAL_I2C_AbortCpltCallback                         Drivers/STM32F4xx_HAL_Driver/Src/stm32f4xx_hal_i2c.o
HAL_I2C_AddrCallback                              Drivers/STM32F4xx_HAL_Driver/Src/stm32f4xx_hal_i2c.o
HAL_I2C_DeInit                                    Drivers/STM32F4xx_HAL_Driver/Src/stm32f4xx_hal_i2c.o
HAL_I2C_DisableListen_IT                          Drivers/STM32F4xx_HAL_Driver/Src/stm32f4xx_hal_i2c.o
HAL_I2C_ER_IRQHandler                             Drivers/STM32F4xx_HAL_Driver/Src/stm32f4xx_hal_i2c.o
HAL_I2C_EV_IRQHandler                             Drivers/STM32F4xx_HAL_Driver/Src/stm32f4xx_hal_i2c.o
HAL_I2C_EnableListen_IT                           Drivers/STM32F4xx_HAL_Driver/Src/stm32f4xx_hal_i2c.o
HAL_I2C_ErrorCallback                             Drivers/STM32F4xx_HAL_Driver/Src/stm32f4xx_hal_i2c.o
HAL_I2C_GetError                                  Drivers/STM32F4xx_HAL_Driver/Src/stm32f4xx_hal_i2c.o
HAL_I2C_GetMode                                   Drivers/STM32F4xx_HAL_Driver/Src/stm32f4xx_hal_i2c.o
HAL_I2C_GetState                                  Drivers/STM32F4xx_HAL_Driver/Src/stm32f4xx_hal_i2c.o
HAL_I2C_Init                                      Drivers/STM32F4xx_HAL_Driver/Src/stm32f4xx_hal_i2c.o
                                                  Core/src/i2c.o
HAL_I2C_IsDeviceReady                             Drivers/STM32F4xx_HAL_Driver/Src/stm32f4xx_hal_i2c.o
HAL_I2C_ListenCpltCallback                        Drivers/STM32F4xx_HAL_Driver/Src/stm32f4xx_hal_i2c.o
HAL_I2C_MasterRxCpltCallback                      Drivers/STM32F4xx_HAL_Driver/Src/stm32f4xx_hal_i2c.o
HAL_I2C_MasterTxCpltCallback                      Drivers/STM32F4xx_HAL_Driver/Src/stm32f4xx_hal_i2c.o
HAL_I2C_Master_Abort_IT                           Drivers/STM32F4xx_HAL_Driver/Src/stm32f4xx_hal_i2c.o
HAL_I2C_Master_Receive                            Drivers/STM32F4xx_HAL_Driver/Src/stm32f4xx_hal_i2c.o
HAL_I2C_Master_Receive_DMA                        Drivers/STM32F4xx_HAL_Driver/Src/stm32f4xx_hal_i2c.o
HAL_I2C_Master_Receive_IT                         Drivers/STM32F4xx_HAL_Driver/Src/stm32f4xx_hal_i2c.o
HAL_I2C_Master_Seq_Receive_DMA                    Drivers/STM32F4xx_HAL_Driver/Src/stm32f4xx_hal_i2c.o
HAL_I2C_Master_Seq_Receive_IT                     Drivers/STM32F4xx_HAL_Driver/Src/stm32f4xx_hal_i2c.o
HAL_I2C_Master_Seq_Transmit_DMA                   Drivers/STM32F4xx_HAL_Driver/Src/stm32f4xx_hal_i2c.o
HAL_I2C_Master_Seq_Transmit_IT                    Drivers/STM32F4xx_HAL_Driver/Src/stm32f4xx_hal_i2c.o
HAL_I2C_Master_Transmit                           Drivers/STM32F4xx_HAL_Driver/Src/stm32f4xx_hal_i2c.o
HAL_I2C_Master_Transmit_DMA                       Drivers/STM32F4xx_HAL_Driver/Src/stm32f4xx_hal_i2c.o
HAL_I2C_Master_Transmit_IT                        Drivers/STM32F4xx_HAL_Driver/Src/stm32f4xx_hal_i2c.o
HAL_I2C_MemRxCpltCallback                         Drivers/STM32F4xx_HAL_Driver/Src/stm32f4xx_hal_i2c.o
HAL_I2C_MemTxCpltCallback                         Drivers/STM32F4xx_HAL_Driver/Src/stm32f4xx_hal_i2c.o
HAL_I2C_Mem_Read                                  Drivers/STM32F4xx_HAL_Driver/Src/stm32f4xx_hal_i2c.o
                                                  Source/bmp280.o
HAL_I2C_Mem_Read_DMA                              Drivers/STM32F4xx_HAL_Driver/Src/stm32f4xx_hal_i2c.o
HAL_I2C_Mem_Read_IT                               Drivers/STM32F4xx_HAL_Driver/Src/stm32f4xx_hal_i2c.o
HAL_I2C_Mem_Write                                 Drivers/STM32F4xx_HAL_Driver/Src/stm32f4xx_hal_i2c.o
                                                  Source/bmp280.o
HAL_I2C_Mem_Write_DMA                             Drivers/STM32F4xx_HAL_Driver/Src/stm32f4xx_hal_i2c.o
HAL_I2C_Mem_Write_IT                              Drivers/STM32F4xx_HAL_Driver/Src/stm32f4xx_hal_i2c.o
HAL_I2C_MspDeInit                                 Core/src/i2c.o
HAL_I2C_MspInit                                   Core/src/i2c.o
HAL_I2C_SlaveRxCpltCallback                       Drivers/STM32F4xx_HAL_Driver/Src/stm32f4xx_hal_i2c.o
HAL_I2C_SlaveTxCpltCallback                       Drivers/STM32F4xx_HAL_Driver/Src/stm32f4xx_hal_i2c.o
HAL_I2C_Slave_Receive                             Drivers/STM32F4xx_HAL_Driver/Src/stm32f4xx_hal_i2c.o
HAL_I2C_Slave_Receive_DMA                         Drivers/STM32F4xx_HAL_Driver/Src/stm32f4xx_hal_i2c.o
HAL_I2C_Slave_Receive_IT                          Drivers/STM32F4xx_HAL_Driver/Src/stm32f4xx_hal_i2c.o
HAL_I2C_Slave_Seq_Receive_DMA                     Drivers/STM32F4xx_HAL_Driver/Src/stm32f4xx_hal_i2c.o
HAL_I2C_Slave_Seq_Receive_IT                      Drivers/STM32F4xx_HAL_Driver/Src/stm32f4xx_hal_i2c.o
HAL_I2C_Slave_Seq_Transmit_DMA                    Drivers/STM32F4xx_HAL_Driver/Src/stm32f4xx_hal_i2c.o
HAL_I2C_Slave_Seq_Transmit_IT                     Drivers/STM32F4xx_HAL_Driver/Src/stm32f4xx_hal_i2c.o
HAL_I2C_Slave_Transmit                            Drivers/STM32F4xx_HAL_Driver/Src/stm32f4xx_hal_i2c.o
HAL_I2C_Slave_Transmit_DMA                        Drivers/STM32F4xx_HAL_Driver/Src/stm32f4xx_hal_i2c.o
HAL_I2C_Slave_Transmit_IT                         Drivers/STM32F4xx_HAL_Driver/Src/stm32f4xx_hal_i2c.o
HAL_IncTick                                       Drivers/STM32F4xx_HAL_Driver/Src/stm32f4xx_hal.o
                                                  Core/src/main.o
HAL_Init                                          Drivers/STM32F4xx_HAL_Driver/Src/stm32f4xx_hal.o
                                                  Core/src/main.o
HAL_InitTick                                      Core/src/stm32f4xx_hal_timebase_tim.o
                                                  Drivers/STM32F4xx_HAL_Driver/Src/stm32f4xx_hal_rcc_ex.o
                                                  Drivers/STM32F4xx_HAL_Driver/Src/stm32f4xx_hal_rcc.o
HAL_MPU_ConfigRegion                              Drivers/STM32F4xx_HAL_Driver/Src/stm32f4xx_hal_cortex.o
HAL_MPU_Disable                                   Drivers/STM32F4xx_HAL_Driver/Src/stm32f4xx_hal_cortex.o
HAL_MPU_Enable                                    Drivers/STM32F4xx_HAL_Driver/Src/stm32f4xx_hal_cortex.o
HAL_MspDeInit                                     Drivers/STM32F4xx_HAL_Driver/Src/stm32f4xx_hal.o
HAL_MspInit                                       Core/src/stm32f4xx_hal_msp.o
HAL_NVIC_ClearPendingIRQ                          Drivers/STM32F4xx_HAL_Driver/Src/stm32f4xx_hal_cortex.o
HAL_NVIC_DisableIRQ                               Drivers/STM32F4xx_HAL_Driver/Src/stm32f4xx_hal_cortex.o
                                                  USB_DEVICE/Target/usbd_conf.o
                                                  Core/src/tim.o
                                                  Core/src/dac.o
HAL_NVIC_EnableIRQ                                Drivers/STM32F4xx_HAL_Driver/Src/stm32f4xx_hal_cortex.o
                                                  USB_DEVICE/Target/usbd_conf.o
                                                  Core/src/tim.o
                                                  Core/src/stm32f4xx_hal_timebase_tim.o
                                                  Core/src/gpio.o
                                                  Core/src/dma.o
                                                  Core/src/dac.o
HAL_NVIC_GetActive                                Drivers/STM32F4xx_HAL_Driver/Src/stm32f4xx_hal_cortex.o
HAL_NVIC_GetPendingIRQ                            Drivers/STM32F4xx_HAL_Driver/Src/stm32f4xx_hal_cortex.o
HAL_NVIC_GetPriority                              Drivers/STM32F4xx_HAL_Driver/Src/stm32f4xx_hal_cortex.o
HAL_NVIC_GetPriorityGrouping                      Drivers/STM32F4xx_HAL_Driver/Src/stm32f4xx_hal_cortex.o
HAL_NVIC_SetPendingIRQ                            Drivers/STM32F4xx_HAL_Driver/Src/stm32f4xx_hal_cortex.o
HAL_NVIC_SetPriority                              Drivers/STM32F4xx_HAL_Driver/Src/stm32f4xx_hal_cortex.o
                                                  USB_DEVICE/Target/usbd_conf.o
                                                  Drivers/STM32F4xx_HAL_Driver/Src/stm32f4xx_hal.o
                                                  Core/src/tim.o
                                                  Core/src/stm32f4xx_hal_timebase_tim.o
                                                  Core/src/stm32f4xx_hal_msp.o
                                                  Core/src/gpio.o
                                                  Core/src/dma.o
                                                  Core/src/dac.o
HAL_NVIC_SetPriorityGrouping                      Drivers/STM32F4xx_HAL_Driver/Src/stm32f4xx_hal_cortex.o
                                                  Drivers/STM32F4xx_HAL_Driver/Src/stm32f4xx_hal.o
HAL_NVIC_SystemReset                              Drivers/STM32F4xx_HAL_Driver/Src/stm32f4xx_hal_cortex.o
HAL_PCDEx_BCD_Callback                            Drivers/STM32F4xx_HAL_Driver/Src/stm32f4xx_hal_pcd_ex.o
HAL_PCDEx_LPM_Callback                            Drivers/STM32F4xx_HAL_Driver/Src/stm32f4xx_hal_pcd_ex.o
                                                  Drivers/STM32F4xx_HAL_Driver/Src/stm32f4xx_hal_pcd.o
HAL_PCDEx_SetRxFiFo                               Drivers/STM32F4xx_HAL_Driver/Src/stm32f4xx_hal_pcd_ex.o
                                                  USB_DEVICE/Target/usbd_conf.o
HAL_PCDEx_SetTxFiFo                               Drivers/STM32F4xx_HAL_Driver/Src/stm32f4xx_hal_pcd_ex.o
                                                  USB_DEVICE/Target/usbd_conf.o
HAL_PCD_ActivateRemoteWakeup                      Drivers/STM32F4xx_HAL_Driver/Src/stm32f4xx_hal_pcd.o
HAL_PCD_ConnectCallback                           USB_DEVICE/Target/usbd_conf.o
                                                  Drivers/STM32F4xx_HAL_Driver/Src/stm32f4xx_hal_pcd.o
HAL_PCD_DataInStageCallback                       USB_DEVICE/Target/usbd_conf.o
                                                  Drivers/STM32F4xx_HAL_Driver/Src/stm32f4xx_hal_pcd.o
HAL_PCD_DataOutStageCallback                      USB_DEVICE/Target/usbd_conf.o
                                                  Drivers/STM32F4xx_HAL_Driver/Src/stm32f4xx_hal_pcd.o
HAL_PCD_DeActivateRemoteWakeup                    Drivers/STM32F4xx_HAL_Driver/Src/stm32f4xx_hal_pcd.o
HAL_PCD_DeInit                                    Drivers/STM32F4xx_HAL_Driver/Src/stm32f4xx_hal_pcd.o
                                                  USB_DEVICE/Target/usbd_conf.o
HAL_PCD_DevConnect                                Drivers/STM32F4xx_HAL_Driver/Src/stm32f4xx_hal_pcd.o
HAL_PCD_DevDisconnect                             Drivers/STM32F4xx_HAL_Driver/Src/stm32f4xx_hal_pcd.o
HAL_PCD_DisconnectCallback                        USB_DEVICE/Target/usbd_conf.o
                                                  Drivers/STM32F4xx_HAL_Driver/Src/stm32f4xx_hal_pcd.o
HAL_PCD_EP_Close                                  Drivers/STM32F4xx_HAL_Driver/Src/stm32f4xx_hal_pcd.o
                                                  USB_DEVICE/Target/usbd_conf.o
HAL_PCD_EP_ClrStall                               Drivers/STM32F4xx_HAL_Driver/Src/stm32f4xx_hal_pcd.o
                                                  USB_DEVICE/Target/usbd_conf.o
HAL_PCD_EP_Flush                                  Drivers/STM32F4xx_HAL_Driver/Src/stm32f4xx_hal_pcd.o
                                                  USB_DEVICE/Target/usbd_conf.o
HAL_PCD_EP_GetRxCount                             Drivers/STM32F4xx_HAL_Driver/Src/stm32f4xx_hal_pcd.o
                                                  USB_DEVICE/Target/usbd_conf.o
HAL_PCD_EP_Open                                   Drivers/STM32F4xx_HAL_Driver/Src/stm32f4xx_hal_pcd.o
                                                  USB_DEVICE/Target/usbd_conf.o
HAL_PCD_EP_Receive                                Drivers/STM32F4xx_HAL_Driver/Src/stm32f4xx_hal_pcd.o
                                                  USB_DEVICE/Target/usbd_conf.o
HAL_PCD_EP_SetStall                               Drivers/STM32F4xx_HAL_Driver/Src/stm32f4xx_hal_pcd.o
                                                  USB_DEVICE/Target/usbd_conf.o
HAL_PCD_EP_Transmit                               Drivers/STM32F4xx_HAL_Driver/Src/stm32f4xx_hal_pcd.o
                                                  USB_DEVICE/Target/usbd_conf.o
HAL_PCD_GetState                                  Drivers/STM32F4xx_HAL_Driver/Src/stm32f4xx_hal_pcd.o
HAL_PCD_IRQHandler                                Drivers/STM32F4xx_HAL_Driver/Src/stm32f4xx_hal_pcd.o
                                                  Core/src/stm32f4xx_it.o
HAL_PCD_ISOINIncompleteCallback                   USB_DEVICE/Target/usbd_conf.o
                                                  Drivers/STM32F4xx_HAL_Driver/Src/stm32f4xx_hal_pcd.o
HAL_PCD_ISOOUTIncompleteCallback                  USB_DEVICE/Target/usbd_conf.o
                                                  Drivers/STM32F4xx_HAL_Driver/Src/stm32f4xx_hal_pcd.o
HAL_PCD_Init                                      Drivers/STM32F4xx_HAL_Driver/Src/stm32f4xx_hal_pcd.o
                                                  USB_DEVICE/Target/usbd_conf.o
HAL_PCD_MspDeInit                                 USB_DEVICE/Target/usbd_conf.o
                                                  Drivers/STM32F4xx_HAL_Driver/Src/stm32f4xx_hal_pcd.o
HAL_PCD_MspInit                                   USB_DEVICE/Target/usbd_conf.o
                                                  Drivers/STM32F4xx_HAL_Driver/Src/stm32f4xx_hal_pcd.o
HAL_PCD_ResetCallback                             USB_DEVICE/Target/usbd_conf.o
                                                  Drivers/STM32F4xx_HAL_Driver/Src/stm32f4xx_hal_pcd.o
HAL_PCD_ResumeCallback                            USB_DEVICE/Target/usbd_conf.o
                                                  Drivers/STM32F4xx_HAL_Driver/Src/stm32f4xx_hal_pcd.o
HAL_PCD_SOFCallback                               USB_DEVICE/Target/usbd_conf.o
                                                  Drivers/STM32F4xx_HAL_Driver/Src/stm32f4xx_hal_pcd.o
HAL_PCD_SetAddress                                Drivers/STM32F4xx_HAL_Driver/Src/stm32f4xx_hal_pcd.o
                                                  USB_DEVICE/Target/usbd_conf.o
HAL_PCD_SetupStageCallback                        USB_DEVICE/Target/usbd_conf.o
                                                  Drivers/STM32F4xx_HAL_Driver/Src/stm32f4xx_hal_pcd.o
HAL_PCD_Start                                     Drivers/STM32F4xx_HAL_Driver/Src/stm32f4xx_hal_pcd.o
                                                  USB_DEVICE/Target/usbd_conf.o
HAL_PCD_Stop                                      Drivers/STM32F4xx_HAL_Driver/Src/stm32f4xx_hal_pcd.o
                                                  USB_DEVICE/Target/usbd_conf.o
HAL_PCD_SuspendCallback                           USB_DEVICE/Target/usbd_conf.o
                                                  Drivers/STM32F4xx_HAL_Driver/Src/stm32f4xx_hal_pcd.o
HAL_PWREx_ControlVoltageScaling                   Drivers/STM32F4xx_HAL_Driver/Src/stm32f4xx_hal_pwr_ex.o
HAL_PWREx_DisableBkUpReg                          Drivers/STM32F4xx_HAL_Driver/Src/stm32f4xx_hal_pwr_ex.o
HAL_PWREx_DisableFlashPowerDown                   Drivers/STM32F4xx_HAL_Driver/Src/stm32f4xx_hal_pwr_ex.o
HAL_PWREx_EnableBkUpReg                           Drivers/STM32F4xx_HAL_Driver/Src/stm32f4xx_hal_pwr_ex.o
HAL_PWREx_EnableFlashPowerDown                    Drivers/STM32F4xx_HAL_Driver/Src/stm32f4xx_hal_pwr_ex.o
HAL_PWREx_GetVoltageRange                         Drivers/STM32F4xx_HAL_Driver/Src/stm32f4xx_hal_pwr_ex.o
HAL_PWR_ConfigPVD                                 Drivers/STM32F4xx_HAL_Driver/Src/stm32f4xx_hal_pwr.o
HAL_PWR_DeInit                                    Drivers/STM32F4xx_HAL_Driver/Src/stm32f4xx_hal_pwr.o
HAL_PWR_DisableBkUpAccess                         Drivers/STM32F4xx_HAL_Driver/Src/stm32f4xx_hal_pwr.o
HAL_PWR_DisablePVD                                Drivers/STM32F4xx_HAL_Driver/Src/stm32f4xx_hal_pwr.o
HAL_PWR_DisableSEVOnPend                          Drivers/STM32F4xx_HAL_Driver/Src/stm32f4xx_hal_pwr.o
HAL_PWR_DisableSleepOnExit                        Drivers/STM32F4xx_HAL_Driver/Src/stm32f4xx_hal_pwr.o
HAL_PWR_DisableWakeUpPin                          Drivers/STM32F4xx_HAL_Driver/Src/stm32f4xx_hal_pwr.o
HAL_PWR_EnableBkUpAccess                          Drivers/STM32F4xx_HAL_Driver/Src/stm32f4xx_hal_pwr.o
HAL_PWR_EnablePVD                                 Drivers/STM32F4xx_HAL_Driver/Src/stm32f4xx_hal_pwr.o
HAL_PWR_EnableSEVOnPend                           Drivers/STM32F4xx_HAL_Driver/Src/stm32f4xx_hal_pwr.o
HAL_PWR_EnableSleepOnExit                         Drivers/STM32F4xx_HAL_Driver/Src/stm32f4xx_hal_pwr.o
HAL_PWR_EnableWakeUpPin                           Drivers/STM32F4xx_HAL_Driver/Src/stm32f4xx_hal_pwr.o
HAL_PWR_EnterSLEEPMode                            Drivers/STM32F4xx_HAL_Driver/Src/stm32f4xx_hal_pwr.o
HAL_PWR_EnterSTANDBYMode                          Drivers/STM32F4xx_HAL_Driver/Src/stm32f4xx_hal_pwr.o
HAL_PWR_EnterSTOPMode                             Drivers/STM32F4xx_HAL_Driver/Src/stm32f4xx_hal_pwr.o
HAL_PWR_PVDCallback                               Drivers/STM32F4xx_HAL_Driver/Src/stm32f4xx_hal_pwr.o
HAL_PWR_PVD_IRQHandler                            Drivers/STM32F4xx_HAL_Driver/Src/stm32f4xx_hal_pwr.o
HAL_RCCEx_DisablePLLI2S                           Drivers/STM32F4xx_HAL_Driver/Src/stm32f4xx_hal_rcc_ex.o
HAL_RCCEx_EnablePLLI2S                            Drivers/STM32F4xx_HAL_Driver/Src/stm32f4xx_hal_rcc_ex.o
HAL_RCCEx_GetPeriphCLKConfig                      Drivers/STM32F4xx_HAL_Driver/Src/stm32f4xx_hal_rcc_ex.o
HAL_RCCEx_GetPeriphCLKFreq                        Drivers/STM32F4xx_HAL_Driver/Src/stm32f4xx_hal_rcc_ex.o
HAL_RCCEx_PeriphCLKConfig                         Drivers/STM32F4xx_HAL_Driver/Src/stm32f4xx_hal_rcc_ex.o
HAL_RCC_CSSCallback                               Drivers/STM32F4xx_HAL_Driver/Src/stm32f4xx_hal_rcc.o
HAL_RCC_ClockConfig                               Drivers/STM32F4xx_HAL_Driver/Src/stm32f4xx_hal_rcc.o
                                                  Core/src/main.o
HAL_RCC_DeInit                                    Drivers/STM32F4xx_HAL_Driver/Src/stm32f4xx_hal_rcc_ex.o
                                                  Drivers/STM32F4xx_HAL_Driver/Src/stm32f4xx_hal_rcc.o
HAL_RCC_DisableCSS                                Drivers/STM32F4xx_HAL_Driver/Src/stm32f4xx_hal_rcc.o
HAL_RCC_EnableCSS                                 Drivers/STM32F4xx_HAL_Driver/Src/stm32f4xx_hal_rcc.o
HAL_RCC_GetClockConfig                            Drivers/STM32F4xx_HAL_Driver/Src/stm32f4xx_hal_rcc.o
                                                  Core/src/stm32f4xx_hal_timebase_tim.o
HAL_RCC_GetHCLKFreq                               Drivers/STM32F4xx_HAL_Driver/Src/stm32f4xx_hal_rcc.o
                                                  Drivers/STM32F4xx_HAL_Driver/Src/stm32f4xx_hal_pcd.o
HAL_RCC_GetOscConfig                              Drivers/STM32F4xx_HAL_Driver/Src/stm32f4xx_hal_rcc.o
HAL_RCC_GetPCLK1Freq                              Drivers/STM32F4xx_HAL_Driver/Src/stm32f4xx_hal_rcc.o
                                                  Drivers/STM32F4xx_HAL_Driver/Src/stm32f4xx_hal_i2c.o
                                                  Core/src/stm32f4xx_hal_timebase_tim.o
HAL_RCC_GetPCLK2Freq                              Drivers/STM32F4xx_HAL_Driver/Src/stm32f4xx_hal_rcc.o
HAL_RCC_GetSysClockFreq                           Drivers/STM32F4xx_HAL_Driver/Src/stm32f4xx_hal_rcc.o
HAL_RCC_MCOConfig                                 Drivers/STM32F4xx_HAL_Driver/Src/stm32f4xx_hal_rcc.o
HAL_RCC_NMI_IRQHandler                            Drivers/STM32F4xx_HAL_Driver/Src/stm32f4xx_hal_rcc.o
HAL_RCC_OscConfig                                 Drivers/STM32F4xx_HAL_Driver/Src/stm32f4xx_hal_rcc.o
                                                  Core/src/main.o
HAL_ResumeTick                                    Core/src/stm32f4xx_hal_timebase_tim.o
HAL_SYSTICK_CLKSourceConfig                       Drivers/STM32F4xx_HAL_Driver/Src/stm32f4xx_hal_cortex.o
HAL_SYSTICK_Callback                              Drivers/STM32F4xx_HAL_Driver/Src/stm32f4xx_hal_cortex.o
HAL_SYSTICK_Config                                Drivers/STM32F4xx_HAL_Driver/Src/stm32f4xx_hal_cortex.o
                                                  Drivers/STM32F4xx_HAL_Driver/Src/stm32f4xx_hal.o
HAL_SYSTICK_IRQHandler                            Drivers/STM32F4xx_HAL_Driver/Src/stm32f4xx_hal_cortex.o
HAL_SetTickFreq                                   Drivers/STM32F4xx_HAL_Driver/Src/stm32f4xx_hal.o
HAL_SuspendTick                                   Core/src/stm32f4xx_hal_timebase_tim.o
HAL_TIMEx_BreakCallback                           Drivers/STM32F4xx_HAL_Driver/Src/stm32f4xx_hal_tim_ex.o
                                                  Drivers/STM32F4xx_HAL_Driver/Src/stm32f4xx_hal_tim.o
HAL_TIMEx_CommutCallback                          Drivers/STM32F4xx_HAL_Driver/Src/stm32f4xx_hal_tim_ex.o
                                                  Drivers/STM32F4xx_HAL_Driver/Src/stm32f4xx_hal_tim.o
HAL_TIMEx_CommutHalfCpltCallback                  Drivers/STM32F4xx_HAL_Driver/Src/stm32f4xx_hal_tim_ex.o
HAL_TIMEx_ConfigBreakDeadTime                     Drivers/STM32F4xx_HAL_Driver/Src/stm32f4xx_hal_tim_ex.o
                                                  Core/src/tim.o
HAL_TIMEx_ConfigCommutEvent                       Drivers/STM32F4xx_HAL_Driver/Src/stm32f4xx_hal_tim_ex.o
HAL_TIMEx_ConfigCommutEvent_DMA                   Drivers/STM32F4xx_HAL_Driver/Src/stm32f4xx_hal_tim_ex.o
HAL_TIMEx_ConfigCommutEvent_IT                    Drivers/STM32F4xx_HAL_Driver/Src/stm32f4xx_hal_tim_ex.o
HAL_TIMEx_HallSensor_DeInit                       Drivers/STM32F4xx_HAL_Driver/Src/stm32f4xx_hal_tim_ex.o
HAL_TIMEx_HallSensor_GetState                     Drivers/STM32F4xx_HAL_Driver/Src/stm32f4xx_hal_tim_ex.o
HAL_TIMEx_HallSensor_Init                         Drivers/STM32F4xx_HAL_Driver/Src/stm32f4xx_hal_tim_ex.o
HAL_TIMEx_HallSensor_MspDeInit                    Drivers/STM32F4xx_HAL_Driver/Src/stm32f4xx_hal_tim_ex.o
HAL_TIMEx_HallSensor_MspInit                      Drivers/STM32F4xx_HAL_Driver/Src/stm32f4xx_hal_tim_ex.o
HAL_TIMEx_HallSensor_Start                        Drivers/STM32F4xx_HAL_Driver/Src/stm32f4xx_hal_tim_ex.o
HAL_TIMEx_HallSensor_Start_DMA                    Drivers/STM32F4xx_HAL_Driver/Src/stm32f4xx_hal_tim_ex.o
HAL_TIMEx_HallSensor_Start_IT                     Drivers/STM32F4xx_HAL_Driver/Src/stm32f4xx_hal_tim_ex.o
HAL_TIMEx_HallSensor_Stop                         Drivers/STM32F4xx_HAL_Driver/Src/stm32f4xx_hal_tim_ex.o
HAL_TIMEx_HallSensor_Stop_DMA                     Drivers/STM32F4xx_HAL_Driver/Src/stm32f4xx_hal_tim_ex.o
HAL_TIMEx_HallSensor_Stop_IT                      Drivers/STM32F4xx_HAL_Driver/Src/stm32f4xx_hal_tim_ex.o
HAL_TIMEx_MasterConfigSynchronization             Drivers/STM32F4xx_HAL_Driver/Src/stm32f4xx_hal_tim_ex.o
                                                  Core/src/tim.o
HAL_TIMEx_OCN_Start                               Drivers/STM32F4xx_HAL_Driver/Src/stm32f4xx_hal_tim_ex.o
HAL_TIMEx_OCN_Start_DMA                           Drivers/STM32F4xx_HAL_Driver/Src/stm32f4xx_hal_tim_ex.o
HAL_TIMEx_OCN_Start_IT                            Drivers/STM32F4xx_HAL_Driver/Src/stm32f4xx_hal_tim_ex.o
HAL_TIMEx_OCN_Stop                                Drivers/STM32F4xx_HAL_Driver/Src/stm32f4xx_hal_tim_ex.o
HAL_TIMEx_OCN_Stop_DMA                            Drivers/STM32F4xx_HAL_Driver/Src/stm32f4xx_hal_tim_ex.o
HAL_TIMEx_OCN_Stop_IT                             Drivers/STM32F4xx_HAL_Driver/Src/stm32f4xx_hal_tim_ex.o
HAL_TIMEx_OnePulseN_Start                         Drivers/STM32F4xx_HAL_Driver/Src/stm32f4xx_hal_tim_ex.o
HAL_TIMEx_OnePulseN_Start_IT                      Drivers/STM32F4xx_HAL_Driver/Src/stm32f4xx_hal_tim_ex.o
HAL_TIMEx_OnePulseN_Stop                          Drivers/STM32F4xx_HAL_Driver/Src/stm32f4xx_hal_tim_ex.o
HAL_TIMEx_OnePulseN_Stop_IT                       Drivers/STM32F4xx_HAL_Driver/Src/stm32f4xx_hal_tim_ex.o
HAL_TIMEx_PWMN_Start                              Drivers/STM32F4xx_HAL_Driver/Src/stm32f4xx_hal_tim_ex.o
HAL_TIMEx_PWMN_Start_DMA                          Drivers/STM32F4xx_HAL_Driver/Src/stm32f4xx_hal_tim_ex.o
HAL_TIMEx_PWMN_Start_IT                           Drivers/STM32F4xx_HAL_Driver/Src/stm32f4xx_hal_tim_ex.o
HAL_TIMEx_PWMN_Stop                               Drivers/STM32F4xx_HAL_Driver/Src/stm32f4xx_hal_tim_ex.o
HAL_TIMEx_PWMN_Stop_DMA                           Drivers/STM32F4xx_HAL_Driver/Src/stm32f4xx_hal_tim_ex.o
HAL_TIMEx_PWMN_Stop_IT                            Drivers/STM32F4xx_HAL_Driver/Src/stm32f4xx_hal_tim_ex.o
HAL_TIMEx_RemapConfig                             Drivers/STM32F4xx_HAL_Driver/Src/stm32f4xx_hal_tim_ex.o
HAL_TIM_Base_DeInit                               Drivers/STM32F4xx_HAL_Driver/Src/stm32f4xx_hal_tim.o
HAL_TIM_Base_GetState                             Drivers/STM32F4xx_HAL_Driver/Src/stm32f4xx_hal_tim.o
HAL_TIM_Base_Init                                 Drivers/STM32F4xx_HAL_Driver/Src/stm32f4xx_hal_tim.o
                                                  Core/src/tim.o
                                                  Core/src/stm32f4xx_hal_timebase_tim.o
HAL_TIM_Base_MspDeInit                            Core/src/tim.o
HAL_TIM_Base_MspInit                              Core/src/tim.o
HAL_TIM_Base_Start                                Drivers/STM32F4xx_HAL_Driver/Src/stm32f4xx_hal_tim.o
HAL_TIM_Base_Start_DMA                            Drivers/STM32F4xx_HAL_Driver/Src/stm32f4xx_hal_tim.o
HAL_TIM_Base_Start_IT                             Drivers/STM32F4xx_HAL_Driver/Src/stm32f4xx_hal_tim.o
                                                  Core/src/stm32f4xx_hal_timebase_tim.o
HAL_TIM_Base_Stop                                 Drivers/STM32F4xx_HAL_Driver/Src/stm32f4xx_hal_tim.o
HAL_TIM_Base_Stop_DMA                             Drivers/STM32F4xx_HAL_Driver/Src/stm32f4xx_hal_tim.o
HAL_TIM_Base_Stop_IT                              Drivers/STM32F4xx_HAL_Driver/Src/stm32f4xx_hal_tim.o
HAL_TIM_ConfigClockSource                         Drivers/STM32F4xx_HAL_Driver/Src/stm32f4xx_hal_tim.o
                                                  Core/src/tim.o
HAL_TIM_ConfigOCrefClear                          Drivers/STM32F4xx_HAL_Driver/Src/stm32f4xx_hal_tim.o
HAL_TIM_ConfigTI1Input                            Drivers/STM32F4xx_HAL_Driver/Src/stm32f4xx_hal_tim.o
HAL_TIM_DMABurst_ReadStart                        Drivers/STM32F4xx_HAL_Driver/Src/stm32f4xx_hal_tim.o
HAL_TIM_DMABurst_ReadStop                         Drivers/STM32F4xx_HAL_Driver/Src/stm32f4xx_hal_tim.o
HAL_TIM_DMABurst_WriteStart                       Drivers/STM32F4xx_HAL_Driver/Src/stm32f4xx_hal_tim.o
HAL_TIM_DMABurst_WriteStop                        Drivers/STM32F4xx_HAL_Driver/Src/stm32f4xx_hal_tim.o
HAL_TIM_Encoder_DeInit                            Drivers/STM32F4xx_HAL_Driver/Src/stm32f4xx_hal_tim.o
HAL_TIM_Encoder_GetState                          Drivers/STM32F4xx_HAL_Driver/Src/stm32f4xx_hal_tim.o
HAL_TIM_Encoder_Init                              Drivers/STM32F4xx_HAL_Driver/Src/stm32f4xx_hal_tim.o
HAL_TIM_Encoder_MspDeInit                         Drivers/STM32F4xx_HAL_Driver/Src/stm32f4xx_hal_tim.o
HAL_TIM_Encoder_MspInit                           Drivers/STM32F4xx_HAL_Driver/Src/stm32f4xx_hal_tim.o
HAL_TIM_Encoder_Start                             Drivers/STM32F4xx_HAL_Driver/Src/stm32f4xx_hal_tim.o
HAL_TIM_Encoder_Start_DMA                         Drivers/STM32F4xx_HAL_Driver/Src/stm32f4xx_hal_tim.o
HAL_TIM_Encoder_Start_IT                          Drivers/STM32F4xx_HAL_Driver/Src/stm32f4xx_hal_tim.o
HAL_TIM_Encoder_Stop                              Drivers/STM32F4xx_HAL_Driver/Src/stm32f4xx_hal_tim.o
HAL_TIM_Encoder_Stop_DMA                          Drivers/STM32F4xx_HAL_Driver/Src/stm32f4xx_hal_tim.o
HAL_TIM_Encoder_Stop_IT                           Drivers/STM32F4xx_HAL_Driver/Src/stm32f4xx_hal_tim.o
HAL_TIM_ErrorCallback                             Drivers/STM32F4xx_HAL_Driver/Src/stm32f4xx_hal_tim.o
HAL_TIM_GenerateEvent                             Drivers/STM32F4xx_HAL_Driver/Src/stm32f4xx_hal_tim.o
HAL_TIM_IC_CaptureCallback                        Drivers/STM32F4xx_HAL_Driver/Src/stm32f4xx_hal_tim.o
HAL_TIM_IC_CaptureHalfCpltCallback                Drivers/STM32F4xx_HAL_Driver/Src/stm32f4xx_hal_tim.o
HAL_TIM_IC_ConfigChannel                          Drivers/STM32F4xx_HAL_Driver/Src/stm32f4xx_hal_tim.o
                                                  Core/src/tim.o
HAL_TIM_IC_DeInit                                 Drivers/STM32F4xx_HAL_Driver/Src/stm32f4xx_hal_tim.o
HAL_TIM_IC_GetState                               Drivers/STM32F4xx_HAL_Driver/Src/stm32f4xx_hal_tim.o
HAL_TIM_IC_Init                                   Drivers/STM32F4xx_HAL_Driver/Src/stm32f4xx_hal_tim.o
                                                  Core/src/tim.o
HAL_TIM_IC_MspDeInit                              Drivers/STM32F4xx_HAL_Driver/Src/stm32f4xx_hal_tim.o
HAL_TIM_IC_MspInit                                Drivers/STM32F4xx_HAL_Driver/Src/stm32f4xx_hal_tim.o
HAL_TIM_IC_Start                                  Drivers/STM32F4xx_HAL_Driver/Src/stm32f4xx_hal_tim.o
HAL_TIM_IC_Start_DMA                              Drivers/STM32F4xx_HAL_Driver/Src/stm32f4xx_hal_tim.o
HAL_TIM_IC_Start_IT                               Drivers/STM32F4xx_HAL_Driver/Src/stm32f4xx_hal_tim.o
HAL_TIM_IC_Stop                                   Drivers/STM32F4xx_HAL_Driver/Src/stm32f4xx_hal_tim.o
HAL_TIM_IC_Stop_DMA                               Drivers/STM32F4xx_HAL_Driver/Src/stm32f4xx_hal_tim.o
HAL_TIM_IC_Stop_IT                                Drivers/STM32F4xx_HAL_Driver/Src/stm32f4xx_hal_tim.o
HAL_TIM_IRQHandler                                Drivers/STM32F4xx_HAL_Driver/Src/stm32f4xx_hal_tim.o
                                                  Core/src/stm32f4xx_it.o
HAL_TIM_OC_ConfigChannel                          Drivers/STM32F4xx_HAL_Driver/Src/stm32f4xx_hal_tim.o
                                                  Core/src/tim.o
HAL_TIM_OC_DeInit                                 Drivers/STM32F4xx_HAL_Driver/Src/stm32f4xx_hal_tim.o
HAL_TIM_OC_DelayElapsedCallback                   Drivers/STM32F4xx_HAL_Driver/Src/stm32f4xx_hal_tim.o
HAL_TIM_OC_GetState                               Drivers/STM32F4xx_HAL_Driver/Src/stm32f4xx_hal_tim.o
HAL_TIM_OC_Init                                   Drivers/STM32F4xx_HAL_Driver/Src/stm32f4xx_hal_tim.o
                                                  Core/src/tim.o
HAL_TIM_OC_MspDeInit                              Drivers/STM32F4xx_HAL_Driver/Src/stm32f4xx_hal_tim.o
HAL_TIM_OC_MspInit                                Drivers/STM32F4xx_HAL_Driver/Src/stm32f4xx_hal_tim.o
HAL_TIM_OC_Start                                  Drivers/STM32F4xx_HAL_Driver/Src/stm32f4xx_hal_tim.o
HAL_TIM_OC_Start_DMA                              Drivers/STM32F4xx_HAL_Driver/Src/stm32f4xx_hal_tim.o
HAL_TIM_OC_Start_IT                               Drivers/STM32F4xx_HAL_Driver/Src/stm32f4xx_hal_tim.o
HAL_TIM_OC_Stop                                   Drivers/STM32F4xx_HAL_Driver/Src/stm32f4xx_hal_tim.o
HAL_TIM_OC_Stop_DMA                               Drivers/STM32F4xx_HAL_Driver/Src/stm32f4xx_hal_tim.o
HAL_TIM_OC_Stop_IT                                Drivers/STM32F4xx_HAL_Driver/Src/stm32f4xx_hal_tim.o
HAL_TIM_OnePulse_ConfigChannel                    Drivers/STM32F4xx_HAL_Driver/Src/stm32f4xx_hal_tim.o
HAL_TIM_OnePulse_DeInit                           Drivers/STM32F4xx_HAL_Driver/Src/stm32f4xx_hal_tim.o
HAL_TIM_OnePulse_GetState                         Drivers/STM32F4xx_HAL_Driver/Src/stm32f4xx_hal_tim.o
HAL_TIM_OnePulse_Init                             Drivers/STM32F4xx_HAL_Driver/Src/stm32f4xx_hal_tim.o
HAL_TIM_OnePulse_MspDeInit                        Drivers/STM32F4xx_HAL_Driver/Src/stm32f4xx_hal_tim.o
HAL_TIM_OnePulse_MspInit                          Drivers/STM32F4xx_HAL_Driver/Src/stm32f4xx_hal_tim.o
HAL_TIM_OnePulse_Start                            Drivers/STM32F4xx_HAL_Driver/Src/stm32f4xx_hal_tim.o
HAL_TIM_OnePulse_Start_IT                         Drivers/STM32F4xx_HAL_Driver/Src/stm32f4xx_hal_tim.o
HAL_TIM_OnePulse_Stop                             Drivers/STM32F4xx_HAL_Driver/Src/stm32f4xx_hal_tim.o
HAL_TIM_OnePulse_Stop_IT                          Drivers/STM32F4xx_HAL_Driver/Src/stm32f4xx_hal_tim.o
HAL_TIM_PWM_ConfigChannel                         Drivers/STM32F4xx_HAL_Driver/Src/stm32f4xx_hal_tim.o
HAL_TIM_PWM_DeInit                                Drivers/STM32F4xx_HAL_Driver/Src/stm32f4xx_hal_tim.o
HAL_TIM_PWM_GetState                              Drivers/STM32F4xx_HAL_Driver/Src/stm32f4xx_hal_tim.o
HAL_TIM_PWM_Init                                  Drivers/STM32F4xx_HAL_Driver/Src/stm32f4xx_hal_tim.o
HAL_TIM_PWM_MspDeInit                             Drivers/STM32F4xx_HAL_Driver/Src/stm32f4xx_hal_tim.o
HAL_TIM_PWM_MspInit                               Drivers/STM32F4xx_HAL_Driver/Src/stm32f4xx_hal_tim.o
HAL_TIM_PWM_PulseFinishedCallback                 Drivers/STM32F4xx_HAL_Driver/Src/stm32f4xx_hal_tim.o
HAL_TIM_PWM_PulseFinishedHalfCpltCallback         Drivers/STM32F4xx_HAL_Driver/Src/stm32f4xx_hal_tim.o
HAL_TIM_PWM_Start                                 Drivers/STM32F4xx_HAL_Driver/Src/stm32f4xx_hal_tim.o
HAL_TIM_PWM_Start_DMA                             Drivers/STM32F4xx_HAL_Driver/Src/stm32f4xx_hal_tim.o
HAL_TIM_PWM_Start_IT                              Drivers/STM32F4xx_HAL_Driver/Src/stm32f4xx_hal_tim.o
HAL_TIM_PWM_Stop                                  Drivers/STM32F4xx_HAL_Driver/Src/stm32f4xx_hal_tim.o
HAL_TIM_PWM_Stop_DMA                              Drivers/STM32F4xx_HAL_Driver/Src/stm32f4xx_hal_tim.o
HAL_TIM_PWM_Stop_IT                               Drivers/STM32F4xx_HAL_Driver/Src/stm32f4xx_hal_tim.o
HAL_TIM_PeriodElapsedCallback                     Core/src/main.o
HAL_TIM_PeriodElapsedHalfCpltCallback             Drivers/STM32F4xx_HAL_Driver/Src/stm32f4xx_hal_tim.o
HAL_TIM_ReadCapturedValue                         Drivers/STM32F4xx_HAL_Driver/Src/stm32f4xx_hal_tim.o
HAL_TIM_SlaveConfigSynchro                        Drivers/STM32F4xx_HAL_Driver/Src/stm32f4xx_hal_tim.o
HAL_TIM_SlaveConfigSynchro_IT                     Drivers/STM32F4xx_HAL_Driver/Src/stm32f4xx_hal_tim.o
HAL_TIM_TriggerCallback                           Drivers/STM32F4xx_HAL_Driver/Src/stm32f4xx_hal_tim.o
HAL_TIM_TriggerHalfCpltCallback                   Drivers/STM32F4xx_HAL_Driver/Src/stm32f4xx_hal_tim.o
HASH_RNG_IRQHandler                               startup/startup_stm32f407xx.o
HX711_Average_Value                               Source/hx711.o
HX711_Init                                        Source/hx711.o
                                                  Core/src/main.o
HX711_Tare                                        Source/hx711.o
HX711_Value                                       Source/hx711.o
HardFault_Handler                                 Core/src/stm32f4xx_it.o
I2C1_ER_IRQHandler                                startup/startup_stm32f407xx.o
I2C1_EV_IRQHandler                                startup/startup_stm32f407xx.o
I2C2_ER_IRQHandler                                startup/startup_stm32f407xx.o
I2C2_EV_IRQHandler                                startup/startup_stm32f407xx.o
I2C3_ER_IRQHandler                                startup/startup_stm32f407xx.o
I2C3_EV_IRQHandler                                startup/startup_stm32f407xx.o
MX_ADC1_Init                                      Core/src/adc.o
                                                  Core/src/main.o
MX_CAN1_Init                                      Core/src/can.o
                                                  Core/src/main.o
MX_DAC_Init                                       Core/src/dac.o
                                                  Core/src/main.o
MX_DMA_Init                                       Core/src/dma.o
                                                  Core/src/main.o
MX_FREERTOS_Init                                  Core/src/freertos.o
                                                  Core/src/main.o
MX_GPIO_Init                                      Core/src/gpio.o
                                                  Core/src/main.o
MX_I2C1_Init                                      Core/src/i2c.o
                                                  Core/src/main.o
MX_TIM1_Init                                      Core/src/tim.o
                                                  Core/src/main.o
MX_TIM2_Init                                      Core/src/tim.o
                                                  Core/src/main.o
MX_TIM5_Init                                      Core/src/tim.o
                                                  Core/src/main.o
MX_TIM8_Init                                      Core/src/tim.o
                                                  Core/src/main.o
MX_USB_DEVICE_Init                                USB_DEVICE/App/usb_device.o
                                                  Core/src/freertos.o
MemManage_Handler                                 Core/src/stm32f4xx_it.o
NMI_Handler                                       Core/src/stm32f4xx_it.o
OTG_FS_IRQHandler                                 Core/src/stm32f4xx_it.o
OTG_FS_WKUP_IRQHandler                            startup/startup_stm32f407xx.o
OTG_HS_EP1_IN_IRQHandler                          startup/startup_stm32f407xx.o
OTG_HS_EP1_OUT_IRQHandler                         startup/startup_stm32f407xx.o
OTG_HS_IRQHandler                                 startup/startup_stm32f407xx.o
OTG_HS_WKUP_IRQHandler                            startup/startup_stm32f407xx.o
PVD_IRQHandler                                    startup/startup_stm32f407xx.o
PendSV_Handler                                    Middlewares/Third_Party/FreeRTOS/Source/portable/GCC/ARM_CM4F/port.o
RCC_IRQHandler                                    startup/startup_stm32f407xx.o
RTC_Alarm_IRQHandler                              startup/startup_stm32f407xx.o
RTC_WKUP_IRQHandler                               startup/startup_stm32f407xx.o
Reset_Handler                                     startup/startup_stm32f407xx.o
SDIO_IRQHandler                                   startup/startup_stm32f407xx.o
SPI1_IRQHandler                                   startup/startup_stm32f407xx.o
SPI2_IRQHandler                                   startup/startup_stm32f407xx.o
SPI3_IRQHandler                                   startup/startup_stm32f407xx.o
SVC_Handler                                       Middlewares/Third_Party/FreeRTOS/Source/portable/GCC/ARM_CM4F/port.o
StartDefaultTask                                  Core/src/freertos.o
SysTick_Handler                                   Middlewares/Third_Party/FreeRTOS/Source/portable/GCC/ARM_CM4F/port.o
SystemClock_Config                                Core/src/main.o
SystemCoreClock                                   Core/src/system_stm32f4xx.o
                                                  Middlewares/Third_Party/FreeRTOS/Source/portable/GCC/ARM_CM4F/port.o
                                                  Middlewares/Third_Party/FreeRTOS/Source/CMSIS_RTOS_V2/cmsis_os2.o
                                                  Drivers/STM32F4xx_HAL_Driver/Src/stm32f4xx_hal_rcc_ex.o
                                                  Drivers/STM32F4xx_HAL_Driver/Src/stm32f4xx_hal_rcc.o
                                                  Drivers/STM32F4xx_HAL_Driver/Src/stm32f4xx_hal_i2c.o
                                                  Drivers/STM32F4xx_HAL_Driver/Src/stm32f4xx_hal_dma.o
                                                  Drivers/STM32F4xx_HAL_Driver/Src/stm32f4xx_hal_adc_ex.o
                                                  Drivers/STM32F4xx_HAL_Driver/Src/stm32f4xx_hal_adc.o
                                                  Drivers/STM32F4xx_HAL_Driver/Src/stm32f4xx_hal.o
SystemCoreClockUpdate                             Core/src/system_stm32f4xx.o
SystemInit                                        Core/src/system_stm32f4xx.o
                                                  startup/startup_stm32f407xx.o
TAMP_STAMP_IRQHandler                             startup/startup_stm32f407xx.o
TIM1_BRK_TIM9_IRQHandler                          startup/startup_stm32f407xx.o
TIM1_CC_IRQHandler                                Source/hub.o
TIM1_TRG_COM_TIM11_IRQHandler                     startup/startup_stm32f407xx.o
TIM1_UP_TIM10_IRQHandler                          Source/hub.o
TIM2_IRQHandler                                   startup/startup_stm32f407xx.o
TIM3_IRQHandler                                   startup/startup_stm32f407xx.o
TIM4_IRQHandler                                   startup/startup_stm32f407xx.o
TIM5_IRQHandler                                   Source/stepper.o
TIM6_DAC_IRQHandler                               Core/src/stm32f4xx_it.o
TIM7_IRQHandler                                   startup/startup_stm32f407xx.o
TIM8_BRK_TIM12_IRQHandler                         startup/startup_stm32f407xx.o
TIM8_CC_IRQHandler                                Source/hx711.o
TIM8_TRG_COM_TIM14_IRQHandler                     startup/startup_stm32f407xx.o
TIM8_UP_TIM13_IRQHandler                          startup/startup_stm32f407xx.o
TIMEx_DMACommutationCplt                          Drivers/STM32F4xx_HAL_Driver/Src/stm32f4xx_hal_tim_ex.o
                                                  Drivers/STM32F4xx_HAL_Driver/Src/stm32f4xx_hal_tim.o
TIMEx_DMACommutationHalfCplt                      Drivers/STM32F4xx_HAL_Driver/Src/stm32f4xx_hal_tim_ex.o
                                                  Drivers/STM32F4xx_HAL_Driver/Src/stm32f4xx_hal_tim.o
TIM_Base_SetConfig                                Drivers/STM32F4xx_HAL_Driver/Src/stm32f4xx_hal_tim.o
                                                  Drivers/STM32F4xx_HAL_Driver/Src/stm32f4xx_hal_tim_ex.o
TIM_CCxChannelCmd                                 Drivers/STM32F4xx_HAL_Driver/Src/stm32f4xx_hal_tim.o
                                                  Drivers/STM32F4xx_HAL_Driver/Src/stm32f4xx_hal_tim_ex.o
TIM_DMACaptureCplt                                Drivers/STM32F4xx_HAL_Driver/Src/stm32f4xx_hal_tim.o
                                                  Drivers/STM32F4xx_HAL_Driver/Src/stm32f4xx_hal_tim_ex.o
TIM_DMACaptureHalfCplt                            Drivers/STM32F4xx_HAL_Driver/Src/stm32f4xx_hal_tim.o
                                                  Drivers/STM32F4xx_HAL_Driver/Src/stm32f4xx_hal_tim_ex.o
TIM_DMADelayPulseCplt                             Drivers/STM32F4xx_HAL_Driver/Src/stm32f4xx_hal_tim.o
                                                  Drivers/STM32F4xx_HAL_Driver/Src/stm32f4xx_hal_tim_ex.o
TIM_DMADelayPulseHalfCplt                         Drivers/STM32F4xx_HAL_Driver/Src/stm32f4xx_hal_tim.o
                                                  Drivers/STM32F4xx_HAL_Driver/Src/stm32f4xx_hal_tim_ex.o
TIM_DMAError                                      Drivers/STM32F4xx_HAL_Driver/Src/stm32f4xx_hal_tim.o
                                                  Drivers/STM32F4xx_HAL_Driver/Src/stm32f4xx_hal_tim_ex.o
TIM_ETR_SetConfig                                 Drivers/STM32F4xx_HAL_Driver/Src/stm32f4xx_hal_tim.o
TIM_OC2_SetConfig                                 Drivers/STM32F4xx_HAL_Driver/Src/stm32f4xx_hal_tim.o
                                                  Drivers/STM32F4xx_HAL_Driver/Src/stm32f4xx_hal_tim_ex.o
TIM_TI1_SetConfig                                 Drivers/STM32F4xx_HAL_Driver/Src/stm32f4xx_hal_tim.o
                                                  Drivers/STM32F4xx_HAL_Driver/Src/stm32f4xx_hal_tim_ex.o
UART4_IRQHandler                                  startup/startup_stm32f407xx.o
UART5_IRQHandler                                  startup/startup_stm32f407xx.o
USART1_IRQHandler                                 startup/startup_stm32f407xx.o
USART2_IRQHandler                                 startup/startup_stm32f407xx.o
USART3_IRQHandler                                 startup/startup_stm32f407xx.o
USART6_IRQHandler                                 startup/startup_stm32f407xx.o
USBD_CDC                                          Middlewares/ST/STM32_USB_Device_Library/Class/CDC/Src/usbd_cdc.o
                                                  USB_DEVICE/App/usb_device.o
USBD_CDC_CfgFSDesc                                Middlewares/ST/STM32_USB_Device_Library/Class/CDC/Src/usbd_cdc.o
USBD_CDC_CfgHSDesc                                Middlewares/ST/STM32_USB_Device_Library/Class/CDC/Src/usbd_cdc.o
USBD_CDC_GetDeviceQualifierDescriptor             Middlewares/ST/STM32_USB_Device_Library/Class/CDC/Src/usbd_cdc.o
USBD_CDC_OtherSpeedCfgDesc                        Middlewares/ST/STM32_USB_Device_Library/Class/CDC/Src/usbd_cdc.o
USBD_CDC_ReceivePacket                            Middlewares/ST/STM32_USB_Device_Library/Class/CDC/Src/usbd_cdc.o
                                                  USB_DEVICE/App/usbd_cdc_if.o
USBD_CDC_RegisterInterface                        Middlewares/ST/STM32_USB_Device_Library/Class/CDC/Src/usbd_cdc.o
                                                  USB_DEVICE/App/usb_device.o
USBD_CDC_SetRxBuffer                              Middlewares/ST/STM32_USB_Device_Library/Class/CDC/Src/usbd_cdc.o
                                                  USB_DEVICE/App/usbd_cdc_if.o
USBD_CDC_SetTxBuffer                              Middlewares/ST/STM32_USB_Device_Library/Class/CDC/Src/usbd_cdc.o
                                                  USB_DEVICE/App/usbd_cdc_if.o
USBD_CDC_TransmitPacket                           Middlewares/ST/STM32_USB_Device_Library/Class/CDC/Src/usbd_cdc.o
                                                  USB_DEVICE/App/usbd_cdc_if.o
USBD_ClrClassConfig                               Middlewares/ST/STM32_USB_Device_Library/Core/Src/usbd_core.o
                                                  Middlewares/ST/STM32_USB_Device_Library/Core/Src/usbd_ctlreq.o
USBD_CtlContinueRx                                Middlewares/ST/STM32_USB_Device_Library/Core/Src/usbd_ioreq.o
                                                  Middlewares/ST/STM32_USB_Device_Library/Core/Src/usbd_core.o
USBD_CtlContinueSendData                          Middlewares/ST/STM32_USB_Device_Library/Core/Src/usbd_ioreq.o
                                                  Middlewares/ST/STM32_USB_Device_Library/Core/Src/usbd_core.o
USBD_CtlError                                     Middlewares/ST/STM32_USB_Device_Library/Core/Src/usbd_ctlreq.o
                                                  Middlewares/ST/STM32_USB_Device_Library/Class/CDC/Src/usbd_cdc.o
USBD_CtlPrepareRx                                 Middlewares/ST/STM32_USB_Device_Library/Core/Src/usbd_ioreq.o
                                                  Middlewares/ST/STM32_USB_Device_Library/Class/CDC/Src/usbd_cdc.o
USBD_CtlReceiveStatus                             Middlewares/ST/STM32_USB_Device_Library/Core/Src/usbd_ioreq.o
                                                  Middlewares/ST/STM32_USB_Device_Library/Core/Src/usbd_core.o
USBD_CtlSendData                                  Middlewares/ST/STM32_USB_Device_Library/Core/Src/usbd_ioreq.o
                                                  Middlewares/ST/STM32_USB_Device_Library/Core/Src/usbd_ctlreq.o
                                                  Middlewares/ST/STM32_USB_Device_Library/Class/CDC/Src/usbd_cdc.o
USBD_CtlSendStatus                                Middlewares/ST/STM32_USB_Device_Library/Core/Src/usbd_ioreq.o
                                                  Middlewares/ST/STM32_USB_Device_Library/Core/Src/usbd_ctlreq.o
                                                  Middlewares/ST/STM32_USB_Device_Library/Core/Src/usbd_core.o
USBD_DeInit                                       Middlewares/ST/STM32_USB_Device_Library/Core/Src/usbd_core.o
USBD_FS_ConfigStrDescriptor                       USB_DEVICE/App/usbd_desc.o
USBD_FS_DeviceDesc                                USB_DEVICE/App/usbd_desc.o
USBD_FS_DeviceDescriptor                          USB_DEVICE/App/usbd_desc.o
USBD_FS_InterfaceStrDescriptor                    USB_DEVICE/App/usbd_desc.o
USBD_FS_LangIDStrDescriptor                       USB_DEVICE/App/usbd_desc.o
USBD_FS_ManufacturerStrDescriptor                 USB_DEVICE/App/usbd_desc.o
USBD_FS_ProductStrDescriptor                      USB_DEVICE/App/usbd_desc.o
USBD_FS_SerialStrDescriptor                       USB_DEVICE/App/usbd_desc.o
USBD_GetRxCount                                   Middlewares/ST/STM32_USB_Device_Library/Core/Src/usbd_ioreq.o
USBD_GetString                                    Middlewares/ST/STM32_USB_Device_Library/Core/Src/usbd_ctlreq.o
                                                  USB_DEVICE/App/usbd_desc.o
USBD_Get_USB_Status                               USB_DEVICE/Target/usbd_conf.o
USBD_Init                                         Middlewares/ST/STM32_USB_Device_Library/Core/Src/usbd_core.o
                                                  USB_DEVICE/App/usb_device.o
USBD_Interface_fops_FS                            USB_DEVICE/App/usbd_cdc_if.o
                                                  USB_DEVICE/App/usb_device.o
USBD_LL_ClearStallEP                              USB_DEVICE/Target/usbd_conf.o
                                                  Middlewares/ST/STM32_USB_Device_Library/Core/Src/usbd_ctlreq.o
USBD_LL_CloseEP                                   USB_DEVICE/Target/usbd_conf.o
                                                  Middlewares/ST/STM32_USB_Device_Library/Class/CDC/Src/usbd_cdc.o
USBD_LL_DataInStage                               Middlewares/ST/STM32_USB_Device_Library/Core/Src/usbd_core.o
                                                  USB_DEVICE/Target/usbd_conf.o
USBD_LL_DataOutStage                              Middlewares/ST/STM32_USB_Device_Library/Core/Src/usbd_core.o
                                                  USB_DEVICE/Target/usbd_conf.o
USBD_LL_DeInit                                    USB_DEVICE/Target/usbd_conf.o
                                                  Middlewares/ST/STM32_USB_Device_Library/Core/Src/usbd_core.o
USBD_LL_Delay                                     USB_DEVICE/Target/usbd_conf.o
USBD_LL_DevConnected                              Middlewares/ST/STM32_USB_Device_Library/Core/Src/usbd_core.o
                                                  USB_DEVICE/Target/usbd_conf.o
USBD_LL_DevDisconnected                           Middlewares/ST/STM32_USB_Device_Library/Core/Src/usbd_core.o
                                                  USB_DEVICE/Target/usbd_conf.o
USBD_LL_FlushEP                                   USB_DEVICE/Target/usbd_conf.o
USBD_LL_GetRxDataSize                             USB_DEVICE/Target/usbd_conf.o
                                                  Middlewares/ST/STM32_USB_Device_Library/Core/Src/usbd_ioreq.o
                                                  Middlewares/ST/STM32_USB_Device_Library/Class/CDC/Src/usbd_cdc.o
USBD_LL_Init                                      USB_DEVICE/Target/usbd_conf.o
                                                  Middlewares/ST/STM32_USB_Device_Library/Core/Src/usbd_core.o
USBD_LL_IsStallEP                                 USB_DEVICE/Target/usbd_conf.o
                                                  Middlewares/ST/STM32_USB_Device_Library/Core/Src/usbd_ctlreq.o
USBD_LL_IsoINIncomplete                           Middlewares/ST/STM32_USB_Device_Library/Core/Src/usbd_core.o
                                                  USB_DEVICE/Target/usbd_conf.o
USBD_LL_IsoOUTIncomplete                          Middlewares/ST/STM32_USB_Device_Library/Core/Src/usbd_core.o
                                                  USB_DEVICE/Target/usbd_conf.o
USBD_LL_OpenEP                                    USB_DEVICE/Target/usbd_conf.o
                                                  Middlewares/ST/STM32_USB_Device_Library/Core/Src/usbd_core.o
                                                  Middlewares/ST/STM32_USB_Device_Library/Class/CDC/Src/usbd_cdc.o
USBD_LL_PrepareReceive                            USB_DEVICE/Target/usbd_conf.o
                                                  Middlewares/ST/STM32_USB_Device_Library/Core/Src/usbd_ioreq.o
                                                  Middlewares/ST/STM32_USB_Device_Library/Core/Src/usbd_core.o
                                                  Middlewares/ST/STM32_USB_Device_Library/Class/CDC/Src/usbd_cdc.o
USBD_LL_Reset                                     Middlewares/ST/STM32_USB_Device_Library/Core/Src/usbd_core.o
                                                  USB_DEVICE/Target/usbd_conf.o
USBD_LL_Resume                                    Middlewares/ST/STM32_USB_Device_Library/Core/Src/usbd_core.o
                                                  USB_DEVICE/Target/usbd_conf.o
USBD_LL_SOF                                       Middlewares/ST/STM32_USB_Device_Library/Core/Src/usbd_core.o
                                                  USB_DEVICE/Target/usbd_conf.o
USBD_LL_SetSpeed                                  Middlewares/ST/STM32_USB_Device_Library/Core/Src/usbd_core.o
                                                  USB_DEVICE/Target/usbd_conf.o
USBD_LL_SetUSBAddress                             USB_DEVICE/Target/usbd_conf.o
                                                  Middlewares/ST/STM32_USB_Device_Library/Core/Src/usbd_ctlreq.o
USBD_LL_SetupStage                                Middlewares/ST/STM32_USB_Device_Library/Core/Src/usbd_core.o
                                                  USB_DEVICE/Target/usbd_conf.o
USBD_LL_StallEP                                   USB_DEVICE/Target/usbd_conf.o
                                                  Middlewares/ST/STM32_USB_Device_Library/Core/Src/usbd_ctlreq.o
                                                  Middlewares/ST/STM32_USB_Device_Library/Core/Src/usbd_core.o
USBD_LL_Start                                     USB_DEVICE/Target/usbd_conf.o
                                                  Middlewares/ST/STM32_USB_Device_Library/Core/Src/usbd_core.o
USBD_LL_Stop                                      USB_DEVICE/Target/usbd_conf.o
                                                  Middlewares/ST/STM32_USB_Device_Library/Core/Src/usbd_core.o
USBD_LL_Suspend                                   Middlewares/ST/STM32_USB_Device_Library/Core/Src/usbd_core.o
                                                  USB_DEVICE/Target/usbd_conf.o
USBD_LL_Transmit                                  USB_DEVICE/Target/usbd_conf.o
                                                  Middlewares/ST/STM32_USB_Device_Library/Core/Src/usbd_ioreq.o
                                                  Middlewares/ST/STM32_USB_Device_Library/Class/CDC/Src/usbd_cdc.o
USBD_LangIDDesc                                   USB_DEVICE/App/usbd_desc.o
USBD_ParseSetupRequest                            Middlewares/ST/STM32_USB_Device_Library/Core/Src/usbd_ctlreq.o
                                                  Middlewares/ST/STM32_USB_Device_Library/Core/Src/usbd_core.o
USBD_RegisterClass                                Middlewares/ST/STM32_USB_Device_Library/Core/Src/usbd_core.o
                                                  USB_DEVICE/App/usb_device.o
USBD_RunTestMode                                  Middlewares/ST/STM32_USB_Device_Library/Core/Src/usbd_core.o
USBD_SetClassConfig                               Middlewares/ST/STM32_USB_Device_Library/Core/Src/usbd_core.o
                                                  Middlewares/ST/STM32_USB_Device_Library/Core/Src/usbd_ctlreq.o
USBD_Start                                        Middlewares/ST/STM32_USB_Device_Library/Core/Src/usbd_core.o
                                                  USB_DEVICE/App/usb_device.o
USBD_StdDevReq                                    Middlewares/ST/STM32_USB_Device_Library/Core/Src/usbd_ctlreq.o
                                                  Middlewares/ST/STM32_USB_Device_Library/Core/Src/usbd_core.o
USBD_StdEPReq                                     Middlewares/ST/STM32_USB_Device_Library/Core/Src/usbd_ctlreq.o
                                                  Middlewares/ST/STM32_USB_Device_Library/Core/Src/usbd_core.o
USBD_StdItfReq                                    Middlewares/ST/STM32_USB_Device_Library/Core/Src/usbd_ctlreq.o
                                                  Middlewares/ST/STM32_USB_Device_Library/Core/Src/usbd_core.o
USBD_Stop                                         Middlewares/ST/STM32_USB_Device_Library/Core/Src/usbd_core.o
USBD_StrDesc                                      USB_DEVICE/App/usbd_desc.o
USBD_StringSerial                                 USB_DEVICE/App/usbd_desc.o
USB_ActivateDedicatedEndpoint                     Drivers/STM32F4xx_HAL_Driver/Src/stm32f4xx_ll_usb.o
USB_ActivateEndpoint                              Drivers/STM32F4xx_HAL_Driver/Src/stm32f4xx_ll_usb.o
                                                  Drivers/STM32F4xx_HAL_Driver/Src/stm32f4xx_hal_pcd.o
USB_ActivateRemoteWakeup                          Drivers/STM32F4xx_HAL_Driver/Src/stm32f4xx_ll_usb.o
                                                  Drivers/STM32F4xx_HAL_Driver/Src/stm32f4xx_hal_pcd.o
USB_ActivateSetup                                 Drivers/STM32F4xx_HAL_Driver/Src/stm32f4xx_ll_usb.o
                                                  Drivers/STM32F4xx_HAL_Driver/Src/stm32f4xx_hal_pcd.o
USB_ClearInterrupts                               Drivers/STM32F4xx_HAL_Driver/Src/stm32f4xx_ll_usb.o
USB_CoreInit                                      Drivers/STM32F4xx_HAL_Driver/Src/stm32f4xx_ll_usb.o
                                                  Drivers/STM32F4xx_HAL_Driver/Src/stm32f4xx_hal_pcd.o
USB_DeActivateRemoteWakeup                        Drivers/STM32F4xx_HAL_Driver/Src/stm32f4xx_ll_usb.o
                                                  Drivers/STM32F4xx_HAL_Driver/Src/stm32f4xx_hal_pcd.o
USB_DeactivateDedicatedEndpoint                   Drivers/STM32F4xx_HAL_Driver/Src/stm32f4xx_ll_usb.o
USB_DeactivateEndpoint                            Drivers/STM32F4xx_HAL_Driver/Src/stm32f4xx_ll_usb.o
                                                  Drivers/STM32F4xx_HAL_Driver/Src/stm32f4xx_hal_pcd.o
USB_DevConnect                                    Drivers/STM32F4xx_HAL_Driver/Src/stm32f4xx_ll_usb.o
                                                  Drivers/STM32F4xx_HAL_Driver/Src/stm32f4xx_hal_pcd.o
USB_DevDisconnect                                 Drivers/STM32F4xx_HAL_Driver/Src/stm32f4xx_ll_usb.o
                                                  Drivers/STM32F4xx_HAL_Driver/Src/stm32f4xx_hal_pcd.o
USB_DevInit                                       Drivers/STM32F4xx_HAL_Driver/Src/stm32f4xx_ll_usb.o
                                                  Drivers/STM32F4xx_HAL_Driver/Src/stm32f4xx_hal_pcd.o
USB_DisableGlobalInt                              Drivers/STM32F4xx_HAL_Driver/Src/stm32f4xx_ll_usb.o
                                                  Drivers/STM32F4xx_HAL_Driver/Src/stm32f4xx_hal_pcd.o
USB_DoPing                                        Drivers/STM32F4xx_HAL_Driver/Src/stm32f4xx_ll_usb.o
USB_DriveVbus                                     Drivers/STM32F4xx_HAL_Driver/Src/stm32f4xx_ll_usb.o
USB_EP0StartXfer                                  Drivers/STM32F4xx_HAL_Driver/Src/stm32f4xx_ll_usb.o
                                                  Drivers/STM32F4xx_HAL_Driver/Src/stm32f4xx_hal_pcd.o
USB_EP0_OutStart                                  Drivers/STM32F4xx_HAL_Driver/Src/stm32f4xx_ll_usb.o
                                                  Drivers/STM32F4xx_HAL_Driver/Src/stm32f4xx_hal_pcd.o
USB_EPClearStall                                  Drivers/STM32F4xx_HAL_Driver/Src/stm32f4xx_ll_usb.o
                                                  Drivers/STM32F4xx_HAL_Driver/Src/stm32f4xx_hal_pcd.o
USB_EPSetStall                                    Drivers/STM32F4xx_HAL_Driver/Src/stm32f4xx_ll_usb.o
                                                  Drivers/STM32F4xx_HAL_Driver/Src/stm32f4xx_hal_pcd.o
USB_EPStartXfer                                   Drivers/STM32F4xx_HAL_Driver/Src/stm32f4xx_ll_usb.o
                                                  Drivers/STM32F4xx_HAL_Driver/Src/stm32f4xx_hal_pcd.o
USB_EnableGlobalInt                               Drivers/STM32F4xx_HAL_Driver/Src/stm32f4xx_ll_usb.o
                                                  Drivers/STM32F4xx_HAL_Driver/Src/stm32f4xx_hal_pcd.o
USB_FlushRxFifo                                   Drivers/STM32F4xx_HAL_Driver/Src/stm32f4xx_ll_usb.o
                                                  Drivers/STM32F4xx_HAL_Driver/Src/stm32f4xx_hal_pcd.o
USB_FlushTxFifo                                   Drivers/STM32F4xx_HAL_Driver/Src/stm32f4xx_ll_usb.o
                                                  Drivers/STM32F4xx_HAL_Driver/Src/stm32f4xx_hal_pcd.o
USB_GetCurrentFrame                               Drivers/STM32F4xx_HAL_Driver/Src/stm32f4xx_ll_usb.o
USB_GetDevSpeed                                   Drivers/STM32F4xx_HAL_Driver/Src/stm32f4xx_ll_usb.o
                                                  Drivers/STM32F4xx_HAL_Driver/Src/stm32f4xx_hal_pcd.o
USB_GetHostSpeed                                  Drivers/STM32F4xx_HAL_Driver/Src/stm32f4xx_ll_usb.o
USB_GetMode                                       Drivers/STM32F4xx_HAL_Driver/Src/stm32f4xx_ll_usb.o
                                                  Drivers/STM32F4xx_HAL_Driver/Src/stm32f4xx_hal_pcd.o
USB_HC_Halt                                       Drivers/STM32F4xx_HAL_Driver/Src/stm32f4xx_ll_usb.o
USB_HC_Init                                       Drivers/STM32F4xx_HAL_Driver/Src/stm32f4xx_ll_usb.o
USB_HC_ReadInterrupt                              Drivers/STM32F4xx_HAL_Driver/Src/stm32f4xx_ll_usb.o
USB_HC_StartXfer                                  Drivers/STM32F4xx_HAL_Driver/Src/stm32f4xx_ll_usb.o
USB_HostInit                                      Drivers/STM32F4xx_HAL_Driver/Src/stm32f4xx_ll_usb.o
USB_InitFSLSPClkSel                               Drivers/STM32F4xx_HAL_Driver/Src/stm32f4xx_ll_usb.o
USB_ReadDevAllInEpInterrupt                       Drivers/STM32F4xx_HAL_Driver/Src/stm32f4xx_ll_usb.o
                                                  Drivers/STM32F4xx_HAL_Driver/Src/stm32f4xx_hal_pcd.o
USB_ReadDevAllOutEpInterrupt                      Drivers/STM32F4xx_HAL_Driver/Src/stm32f4xx_ll_usb.o
                                                  Drivers/STM32F4xx_HAL_Driver/Src/stm32f4xx_hal_pcd.o
USB_ReadDevInEPInterrupt                          Drivers/STM32F4xx_HAL_Driver/Src/stm32f4xx_ll_usb.o
                                                  Drivers/STM32F4xx_HAL_Driver/Src/stm32f4xx_hal_pcd.o
USB_ReadDevOutEPInterrupt                         Drivers/STM32F4xx_HAL_Driver/Src/stm32f4xx_ll_usb.o
                                                  Drivers/STM32F4xx_HAL_Driver/Src/stm32f4xx_hal_pcd.o
USB_ReadInterrupts                                Drivers/STM32F4xx_HAL_Driver/Src/stm32f4xx_ll_usb.o
                                                  Drivers/STM32F4xx_HAL_Driver/Src/stm32f4xx_hal_pcd.o
USB_ReadPacket                                    Drivers/STM32F4xx_HAL_Driver/Src/stm32f4xx_ll_usb.o
                                                  Drivers/STM32F4xx_HAL_Driver/Src/stm32f4xx_hal_pcd.o
USB_ResetPort                                     Drivers/STM32F4xx_HAL_Driver/Src/stm32f4xx_ll_usb.o
USB_SetCurrentMode                                Drivers/STM32F4xx_HAL_Driver/Src/stm32f4xx_ll_usb.o
                                                  Drivers/STM32F4xx_HAL_Driver/Src/stm32f4xx_hal_pcd.o
USB_SetDevAddress                                 Drivers/STM32F4xx_HAL_Driver/Src/stm32f4xx_ll_usb.o
                                                  Drivers/STM32F4xx_HAL_Driver/Src/stm32f4xx_hal_pcd.o
USB_SetDevSpeed                                   Drivers/STM32F4xx_HAL_Driver/Src/stm32f4xx_ll_usb.o
USB_SetTurnaroundTime                             Drivers/STM32F4xx_HAL_Driver/Src/stm32f4xx_ll_usb.o
                                                  Drivers/STM32F4xx_HAL_Driver/Src/stm32f4xx_hal_pcd.o
USB_StopDevice                                    Drivers/STM32F4xx_HAL_Driver/Src/stm32f4xx_ll_usb.o
                                                  Drivers/STM32F4xx_HAL_Driver/Src/stm32f4xx_hal_pcd.o
USB_StopHost                                      Drivers/STM32F4xx_HAL_Driver/Src/stm32f4xx_ll_usb.o
USB_WritePacket                                   Drivers/STM32F4xx_HAL_Driver/Src/stm32f4xx_ll_usb.o
                                                  Drivers/STM32F4xx_HAL_Driver/Src/stm32f4xx_hal_pcd.o
UsageFault_Handler                                Core/src/stm32f4xx_it.o
UserRxBufferFS                                    USB_DEVICE/App/usbd_cdc_if.o
UserTxBufferFS                                    USB_DEVICE/App/usbd_cdc_if.o
WWDG_IRQHandler                                   startup/startup_stm32f407xx.o
_Balloc                                           /opt/Atollic_TrueSTUDIO_for_STM32_x86_64_9.3.0/ARMTools/bin/../lib/gcc/arm-atollic-eabi/6.3.1/../../../../arm-atollic-eabi/lib/armv7e-m/fpu/libc.a(lib_a-mprec.o)
                                                  /opt/Atollic_TrueSTUDIO_for_STM32_x86_64_9.3.0/ARMTools/bin/../lib/gcc/arm-atollic-eabi/6.3.1/../../../../arm-atollic-eabi/lib/armv7e-m/fpu/libc.a(lib_a-dtoa.o)
_Bfree                                            /opt/Atollic_TrueSTUDIO_for_STM32_x86_64_9.3.0/ARMTools/bin/../lib/gcc/arm-atollic-eabi/6.3.1/../../../../arm-atollic-eabi/lib/armv7e-m/fpu/libc.a(lib_a-mprec.o)
                                                  /opt/Atollic_TrueSTUDIO_for_STM32_x86_64_9.3.0/ARMTools/bin/../lib/gcc/arm-atollic-eabi/6.3.1/../../../../arm-atollic-eabi/lib/armv7e-m/fpu/libc.a(lib_a-dtoa.o)
_PathLocale                                       /opt/Atollic_TrueSTUDIO_for_STM32_x86_64_9.3.0/ARMTools/bin/../lib/gcc/arm-atollic-eabi/6.3.1/../../../../arm-atollic-eabi/lib/armv7e-m/fpu/libc.a(lib_a-locale.o)
__adddf3                                          /opt/Atollic_TrueSTUDIO_for_STM32_x86_64_9.3.0/ARMTools/bin/../lib/gcc/arm-atollic-eabi/6.3.1/armv7e-m/fpu/libgcc.a(_arm_addsubdf3.o)
__aeabi_cdcmpeq                                   /opt/Atollic_TrueSTUDIO_for_STM32_x86_64_9.3.0/ARMTools/bin/../lib/gcc/arm-atollic-eabi/6.3.1/armv7e-m/fpu/libgcc.a(_arm_cmpdf2.o)
__aeabi_cdcmple                                   /opt/Atollic_TrueSTUDIO_for_STM32_x86_64_9.3.0/ARMTools/bin/../lib/gcc/arm-atollic-eabi/6.3.1/armv7e-m/fpu/libgcc.a(_arm_cmpdf2.o)
__aeabi_cdrcmple                                  /opt/Atollic_TrueSTUDIO_for_STM32_x86_64_9.3.0/ARMTools/bin/../lib/gcc/arm-atollic-eabi/6.3.1/armv7e-m/fpu/libgcc.a(_arm_cmpdf2.o)
__aeabi_d2iz                                      /opt/Atollic_TrueSTUDIO_for_STM32_x86_64_9.3.0/ARMTools/bin/../lib/gcc/arm-atollic-eabi/6.3.1/armv7e-m/fpu/libgcc.a(_arm_fixdfsi.o)
                                                  /opt/Atollic_TrueSTUDIO_for_STM32_x86_64_9.3.0/ARMTools/bin/../lib/gcc/arm-atollic-eabi/6.3.1/../../../../arm-atollic-eabi/lib/armv7e-m/fpu/libc.a(lib_a-dtoa.o)
                                                  Source/stepper.o
__aeabi_dadd                                      /opt/Atollic_TrueSTUDIO_for_STM32_x86_64_9.3.0/ARMTools/bin/../lib/gcc/arm-atollic-eabi/6.3.1/armv7e-m/fpu/libgcc.a(_arm_addsubdf3.o)
                                                  /opt/Atollic_TrueSTUDIO_for_STM32_x86_64_9.3.0/ARMTools/bin/../lib/gcc/arm-atollic-eabi/6.3.1/../../../../arm-atollic-eabi/lib/armv7e-m/fpu/libm.a(lib_a-e_sqrt.o)
                                                  /opt/Atollic_TrueSTUDIO_for_STM32_x86_64_9.3.0/ARMTools/bin/../lib/gcc/arm-atollic-eabi/6.3.1/../../../../arm-atollic-eabi/lib/armv7e-m/fpu/libc.a(lib_a-dtoa.o)
__aeabi_dcmpeq                                    /opt/Atollic_TrueSTUDIO_for_STM32_x86_64_9.3.0/ARMTools/bin/../lib/gcc/arm-atollic-eabi/6.3.1/armv7e-m/fpu/libgcc.a(_arm_cmpdf2.o)
                                                  /opt/Atollic_TrueSTUDIO_for_STM32_x86_64_9.3.0/ARMTools/bin/../lib/gcc/arm-atollic-eabi/6.3.1/../../../../arm-atollic-eabi/lib/armv7e-m/fpu/libc.a(lib_a-dtoa.o)
                                                  /opt/Atollic_TrueSTUDIO_for_STM32_x86_64_9.3.0/ARMTools/bin/../lib/gcc/arm-atollic-eabi/6.3.1/../../../../arm-atollic-eabi/lib/armv7e-m/fpu/libc.a(lib_a-svfprintf.o)
__aeabi_dcmpge                                    /opt/Atollic_TrueSTUDIO_for_STM32_x86_64_9.3.0/ARMTools/bin/../lib/gcc/arm-atollic-eabi/6.3.1/armv7e-m/fpu/libgcc.a(_arm_cmpdf2.o)
                                                  /opt/Atollic_TrueSTUDIO_for_STM32_x86_64_9.3.0/ARMTools/bin/../lib/gcc/arm-atollic-eabi/6.3.1/../../../../arm-atollic-eabi/lib/armv7e-m/fpu/libc.a(lib_a-dtoa.o)
__aeabi_dcmpgt                                    /opt/Atollic_TrueSTUDIO_for_STM32_x86_64_9.3.0/ARMTools/bin/../lib/gcc/arm-atollic-eabi/6.3.1/armv7e-m/fpu/libgcc.a(_arm_cmpdf2.o)
                                                  /opt/Atollic_TrueSTUDIO_for_STM32_x86_64_9.3.0/ARMTools/bin/../lib/gcc/arm-atollic-eabi/6.3.1/../../../../arm-atollic-eabi/lib/armv7e-m/fpu/libc.a(lib_a-dtoa.o)
__aeabi_dcmple                                    /opt/Atollic_TrueSTUDIO_for_STM32_x86_64_9.3.0/ARMTools/bin/../lib/gcc/arm-atollic-eabi/6.3.1/armv7e-m/fpu/libgcc.a(_arm_cmpdf2.o)
                                                  /opt/Atollic_TrueSTUDIO_for_STM32_x86_64_9.3.0/ARMTools/bin/../lib/gcc/arm-atollic-eabi/6.3.1/../../../../arm-atollic-eabi/lib/armv7e-m/fpu/libc.a(lib_a-svfprintf.o)
__aeabi_dcmplt                                    /opt/Atollic_TrueSTUDIO_for_STM32_x86_64_9.3.0/ARMTools/bin/../lib/gcc/arm-atollic-eabi/6.3.1/armv7e-m/fpu/libgcc.a(_arm_cmpdf2.o)
                                                  /opt/Atollic_TrueSTUDIO_for_STM32_x86_64_9.3.0/ARMTools/bin/../lib/gcc/arm-atollic-eabi/6.3.1/../../../../arm-atollic-eabi/lib/armv7e-m/fpu/libm.a(lib_a-w_sqrt.o)
                                                  /opt/Atollic_TrueSTUDIO_for_STM32_x86_64_9.3.0/ARMTools/bin/../lib/gcc/arm-atollic-eabi/6.3.1/../../../../arm-atollic-eabi/lib/armv7e-m/fpu/libc.a(lib_a-dtoa.o)
                                                  /opt/Atollic_TrueSTUDIO_for_STM32_x86_64_9.3.0/ARMTools/bin/../lib/gcc/arm-atollic-eabi/6.3.1/../../../../arm-atollic-eabi/lib/armv7e-m/fpu/libc.a(lib_a-svfprintf.o)
__aeabi_dcmpun                                    /opt/Atollic_TrueSTUDIO_for_STM32_x86_64_9.3.0/ARMTools/bin/../lib/gcc/arm-atollic-eabi/6.3.1/armv7e-m/fpu/libgcc.a(_arm_unorddf2.o)
                                                  /opt/Atollic_TrueSTUDIO_for_STM32_x86_64_9.3.0/ARMTools/bin/../lib/gcc/arm-atollic-eabi/6.3.1/../../../../arm-atollic-eabi/lib/armv7e-m/fpu/libm.a(lib_a-w_sqrt.o)
                                                  /opt/Atollic_TrueSTUDIO_for_STM32_x86_64_9.3.0/ARMTools/bin/../lib/gcc/arm-atollic-eabi/6.3.1/../../../../arm-atollic-eabi/lib/armv7e-m/fpu/libc.a(lib_a-svfprintf.o)
__aeabi_ddiv                                      /opt/Atollic_TrueSTUDIO_for_STM32_x86_64_9.3.0/ARMTools/bin/../lib/gcc/arm-atollic-eabi/6.3.1/armv7e-m/fpu/libgcc.a(_arm_muldivdf3.o)
                                                  /opt/Atollic_TrueSTUDIO_for_STM32_x86_64_9.3.0/ARMTools/bin/../lib/gcc/arm-atollic-eabi/6.3.1/../../../../arm-atollic-eabi/lib/armv7e-m/fpu/libm.a(lib_a-e_sqrt.o)
                                                  /opt/Atollic_TrueSTUDIO_for_STM32_x86_64_9.3.0/ARMTools/bin/../lib/gcc/arm-atollic-eabi/6.3.1/../../../../arm-atollic-eabi/lib/armv7e-m/fpu/libm.a(lib_a-w_sqrt.o)
                                                  /opt/Atollic_TrueSTUDIO_for_STM32_x86_64_9.3.0/ARMTools/bin/../lib/gcc/arm-atollic-eabi/6.3.1/../../../../arm-atollic-eabi/lib/armv7e-m/fpu/libc.a(lib_a-mprec.o)
                                                  /opt/Atollic_TrueSTUDIO_for_STM32_x86_64_9.3.0/ARMTools/bin/../lib/gcc/arm-atollic-eabi/6.3.1/../../../../arm-atollic-eabi/lib/armv7e-m/fpu/libc.a(lib_a-dtoa.o)
                                                  Source/stepper.o
__aeabi_dmul                                      /opt/Atollic_TrueSTUDIO_for_STM32_x86_64_9.3.0/ARMTools/bin/../lib/gcc/arm-atollic-eabi/6.3.1/armv7e-m/fpu/libgcc.a(_arm_muldivdf3.o)
                                                  /opt/Atollic_TrueSTUDIO_for_STM32_x86_64_9.3.0/ARMTools/bin/../lib/gcc/arm-atollic-eabi/6.3.1/../../../../arm-atollic-eabi/lib/armv7e-m/fpu/libm.a(lib_a-e_sqrt.o)
                                                  /opt/Atollic_TrueSTUDIO_for_STM32_x86_64_9.3.0/ARMTools/bin/../lib/gcc/arm-atollic-eabi/6.3.1/../../../../arm-atollic-eabi/lib/armv7e-m/fpu/libc.a(lib_a-mprec.o)
                                                  /opt/Atollic_TrueSTUDIO_for_STM32_x86_64_9.3.0/ARMTools/bin/../lib/gcc/arm-atollic-eabi/6.3.1/../../../../arm-atollic-eabi/lib/armv7e-m/fpu/libc.a(lib_a-dtoa.o)
                                                  Source/stepper.o
__aeabi_drsub                                     /opt/Atollic_TrueSTUDIO_for_STM32_x86_64_9.3.0/ARMTools/bin/../lib/gcc/arm-atollic-eabi/6.3.1/armv7e-m/fpu/libgcc.a(_arm_addsubdf3.o)
__aeabi_dsub                                      /opt/Atollic_TrueSTUDIO_for_STM32_x86_64_9.3.0/ARMTools/bin/../lib/gcc/arm-atollic-eabi/6.3.1/armv7e-m/fpu/libgcc.a(_arm_addsubdf3.o)
                                                  /opt/Atollic_TrueSTUDIO_for_STM32_x86_64_9.3.0/ARMTools/bin/../lib/gcc/arm-atollic-eabi/6.3.1/../../../../arm-atollic-eabi/lib/armv7e-m/fpu/libm.a(lib_a-e_sqrt.o)
                                                  /opt/Atollic_TrueSTUDIO_for_STM32_x86_64_9.3.0/ARMTools/bin/../lib/gcc/arm-atollic-eabi/6.3.1/../../../../arm-atollic-eabi/lib/armv7e-m/fpu/libc.a(lib_a-dtoa.o)
__aeabi_f2d                                       /opt/Atollic_TrueSTUDIO_for_STM32_x86_64_9.3.0/ARMTools/bin/../lib/gcc/arm-atollic-eabi/6.3.1/armv7e-m/fpu/libgcc.a(_arm_addsubdf3.o)
__aeabi_i2d                                       /opt/Atollic_TrueSTUDIO_for_STM32_x86_64_9.3.0/ARMTools/bin/../lib/gcc/arm-atollic-eabi/6.3.1/armv7e-m/fpu/libgcc.a(_arm_addsubdf3.o)
                                                  /opt/Atollic_TrueSTUDIO_for_STM32_x86_64_9.3.0/ARMTools/bin/../lib/gcc/arm-atollic-eabi/6.3.1/../../../../arm-atollic-eabi/lib/armv7e-m/fpu/libc.a(lib_a-dtoa.o)
__aeabi_idiv0                                     /opt/Atollic_TrueSTUDIO_for_STM32_x86_64_9.3.0/ARMTools/bin/../lib/gcc/arm-atollic-eabi/6.3.1/armv7e-m/fpu/libgcc.a(_dvmd_tls.o)
__aeabi_l2d                                       /opt/Atollic_TrueSTUDIO_for_STM32_x86_64_9.3.0/ARMTools/bin/../lib/gcc/arm-atollic-eabi/6.3.1/armv7e-m/fpu/libgcc.a(_arm_addsubdf3.o)
__aeabi_ldiv0                                     /opt/Atollic_TrueSTUDIO_for_STM32_x86_64_9.3.0/ARMTools/bin/../lib/gcc/arm-atollic-eabi/6.3.1/armv7e-m/fpu/libgcc.a(_dvmd_tls.o)
                                                  /opt/Atollic_TrueSTUDIO_for_STM32_x86_64_9.3.0/ARMTools/bin/../lib/gcc/arm-atollic-eabi/6.3.1/armv7e-m/fpu/libgcc.a(_aeabi_uldivmod.o)
                                                  /opt/Atollic_TrueSTUDIO_for_STM32_x86_64_9.3.0/ARMTools/bin/../lib/gcc/arm-atollic-eabi/6.3.1/armv7e-m/fpu/libgcc.a(_aeabi_ldivmod.o)
__aeabi_ldivmod                                   /opt/Atollic_TrueSTUDIO_for_STM32_x86_64_9.3.0/ARMTools/bin/../lib/gcc/arm-atollic-eabi/6.3.1/armv7e-m/fpu/libgcc.a(_aeabi_ldivmod.o)
                                                  Source/bmp280.o
__aeabi_ui2d                                      /opt/Atollic_TrueSTUDIO_for_STM32_x86_64_9.3.0/ARMTools/bin/../lib/gcc/arm-atollic-eabi/6.3.1/armv7e-m/fpu/libgcc.a(_arm_addsubdf3.o)
                                                  /opt/Atollic_TrueSTUDIO_for_STM32_x86_64_9.3.0/ARMTools/bin/../lib/gcc/arm-atollic-eabi/6.3.1/../../../../arm-atollic-eabi/lib/armv7e-m/fpu/libc.a(lib_a-dtoa.o)
                                                  Source/stepper.o
__aeabi_ul2d                                      /opt/Atollic_TrueSTUDIO_for_STM32_x86_64_9.3.0/ARMTools/bin/../lib/gcc/arm-atollic-eabi/6.3.1/armv7e-m/fpu/libgcc.a(_arm_addsubdf3.o)
__aeabi_uldivmod                                  /opt/Atollic_TrueSTUDIO_for_STM32_x86_64_9.3.0/ARMTools/bin/../lib/gcc/arm-atollic-eabi/6.3.1/armv7e-m/fpu/libgcc.a(_aeabi_uldivmod.o)
                                                  /opt/Atollic_TrueSTUDIO_for_STM32_x86_64_9.3.0/ARMTools/bin/../lib/gcc/arm-atollic-eabi/6.3.1/../../../../arm-atollic-eabi/lib/armv7e-m/fpu/libc.a(lib_a-svfiprintf.o)
                                                  /opt/Atollic_TrueSTUDIO_for_STM32_x86_64_9.3.0/ARMTools/bin/../lib/gcc/arm-atollic-eabi/6.3.1/../../../../arm-atollic-eabi/lib/armv7e-m/fpu/libc.a(lib_a-svfprintf.o)
                                                  Drivers/STM32F4xx_HAL_Driver/Src/stm32f4xx_hal_rcc.o
__any_on                                          /opt/Atollic_TrueSTUDIO_for_STM32_x86_64_9.3.0/ARMTools/bin/../lib/gcc/arm-atollic-eabi/6.3.1/../../../../arm-atollic-eabi/lib/armv7e-m/fpu/libc.a(lib_a-mprec.o)
__ascii_mbtowc                                    /opt/Atollic_TrueSTUDIO_for_STM32_x86_64_9.3.0/ARMTools/bin/../lib/gcc/arm-atollic-eabi/6.3.1/../../../../arm-atollic-eabi/lib/armv7e-m/fpu/libc.a(lib_a-mbtowc_r.o)
                                                  /opt/Atollic_TrueSTUDIO_for_STM32_x86_64_9.3.0/ARMTools/bin/../lib/gcc/arm-atollic-eabi/6.3.1/../../../../arm-atollic-eabi/lib/armv7e-m/fpu/libc.a(lib_a-locale.o)
__ascii_wctomb                                    /opt/Atollic_TrueSTUDIO_for_STM32_x86_64_9.3.0/ARMTools/bin/../lib/gcc/arm-atollic-eabi/6.3.1/../../../../arm-atollic-eabi/lib/armv7e-m/fpu/libc.a(lib_a-wctomb_r.o)
                                                  /opt/Atollic_TrueSTUDIO_for_STM32_x86_64_9.3.0/ARMTools/bin/../lib/gcc/arm-atollic-eabi/6.3.1/../../../../arm-atollic-eabi/lib/armv7e-m/fpu/libc.a(lib_a-locale.o)
__b2d                                             /opt/Atollic_TrueSTUDIO_for_STM32_x86_64_9.3.0/ARMTools/bin/../lib/gcc/arm-atollic-eabi/6.3.1/../../../../arm-atollic-eabi/lib/armv7e-m/fpu/libc.a(lib_a-mprec.o)
__cmpdf2                                          /opt/Atollic_TrueSTUDIO_for_STM32_x86_64_9.3.0/ARMTools/bin/../lib/gcc/arm-atollic-eabi/6.3.1/armv7e-m/fpu/libgcc.a(_arm_cmpdf2.o)
__copybits                                        /opt/Atollic_TrueSTUDIO_for_STM32_x86_64_9.3.0/ARMTools/bin/../lib/gcc/arm-atollic-eabi/6.3.1/../../../../arm-atollic-eabi/lib/armv7e-m/fpu/libc.a(lib_a-mprec.o)
__d2b                                             /opt/Atollic_TrueSTUDIO_for_STM32_x86_64_9.3.0/ARMTools/bin/../lib/gcc/arm-atollic-eabi/6.3.1/../../../../arm-atollic-eabi/lib/armv7e-m/fpu/libc.a(lib_a-mprec.o)
                                                  /opt/Atollic_TrueSTUDIO_for_STM32_x86_64_9.3.0/ARMTools/bin/../lib/gcc/arm-atollic-eabi/6.3.1/../../../../arm-atollic-eabi/lib/armv7e-m/fpu/libc.a(lib_a-dtoa.o)
__deregister_frame_info                           /opt/Atollic_TrueSTUDIO_for_STM32_x86_64_9.3.0/ARMTools/bin/../lib/gcc/arm-atollic-eabi/6.3.1/armv7e-m/fpu/crtbegin.o
__divdf3                                          /opt/Atollic_TrueSTUDIO_for_STM32_x86_64_9.3.0/ARMTools/bin/../lib/gcc/arm-atollic-eabi/6.3.1/armv7e-m/fpu/libgcc.a(_arm_muldivdf3.o)
__dso_handle                                      /opt/Atollic_TrueSTUDIO_for_STM32_x86_64_9.3.0/ARMTools/bin/../lib/gcc/arm-atollic-eabi/6.3.1/armv7e-m/fpu/crtbegin.o
__env                                             Core/src/syscalls.o
__eqdf2                                           /opt/Atollic_TrueSTUDIO_for_STM32_x86_64_9.3.0/ARMTools/bin/../lib/gcc/arm-atollic-eabi/6.3.1/armv7e-m/fpu/libgcc.a(_arm_cmpdf2.o)
__errno                                           /opt/Atollic_TrueSTUDIO_for_STM32_x86_64_9.3.0/ARMTools/bin/../lib/gcc/arm-atollic-eabi/6.3.1/../../../../arm-atollic-eabi/lib/armv7e-m/fpu/libc.a(lib_a-errno.o)
                                                  /opt/Atollic_TrueSTUDIO_for_STM32_x86_64_9.3.0/ARMTools/bin/../lib/gcc/arm-atollic-eabi/6.3.1/../../../../arm-atollic-eabi/lib/armv7e-m/fpu/libm.a(lib_a-w_sqrt.o)
                                                  Core/src/syscalls.o
__extendsfdf2                                     /opt/Atollic_TrueSTUDIO_for_STM32_x86_64_9.3.0/ARMTools/bin/../lib/gcc/arm-atollic-eabi/6.3.1/armv7e-m/fpu/libgcc.a(_arm_addsubdf3.o)
__fdlib_version                                   /opt/Atollic_TrueSTUDIO_for_STM32_x86_64_9.3.0/ARMTools/bin/../lib/gcc/arm-atollic-eabi/6.3.1/../../../../arm-atollic-eabi/lib/armv7e-m/fpu/libm.a(lib_a-s_lib_ver.o)
                                                  /opt/Atollic_TrueSTUDIO_for_STM32_x86_64_9.3.0/ARMTools/bin/../lib/gcc/arm-atollic-eabi/6.3.1/../../../../arm-atollic-eabi/lib/armv7e-m/fpu/libm.a(lib_a-w_sqrt.o)
__fixdfsi                                         /opt/Atollic_TrueSTUDIO_for_STM32_x86_64_9.3.0/ARMTools/bin/../lib/gcc/arm-atollic-eabi/6.3.1/armv7e-m/fpu/libgcc.a(_arm_fixdfsi.o)
__floatdidf                                       /opt/Atollic_TrueSTUDIO_for_STM32_x86_64_9.3.0/ARMTools/bin/../lib/gcc/arm-atollic-eabi/6.3.1/armv7e-m/fpu/libgcc.a(_arm_addsubdf3.o)
__floatsidf                                       /opt/Atollic_TrueSTUDIO_for_STM32_x86_64_9.3.0/ARMTools/bin/../lib/gcc/arm-atollic-eabi/6.3.1/armv7e-m/fpu/libgcc.a(_arm_addsubdf3.o)
__floatundidf                                     /opt/Atollic_TrueSTUDIO_for_STM32_x86_64_9.3.0/ARMTools/bin/../lib/gcc/arm-atollic-eabi/6.3.1/armv7e-m/fpu/libgcc.a(_arm_addsubdf3.o)
__floatunsidf                                     /opt/Atollic_TrueSTUDIO_for_STM32_x86_64_9.3.0/ARMTools/bin/../lib/gcc/arm-atollic-eabi/6.3.1/armv7e-m/fpu/libgcc.a(_arm_addsubdf3.o)
__gedf2                                           /opt/Atollic_TrueSTUDIO_for_STM32_x86_64_9.3.0/ARMTools/bin/../lib/gcc/arm-atollic-eabi/6.3.1/armv7e-m/fpu/libgcc.a(_arm_cmpdf2.o)
__global_locale                                   /opt/Atollic_TrueSTUDIO_for_STM32_x86_64_9.3.0/ARMTools/bin/../lib/gcc/arm-atollic-eabi/6.3.1/../../../../arm-atollic-eabi/lib/armv7e-m/fpu/libc.a(lib_a-locale.o)
                                                  /opt/Atollic_TrueSTUDIO_for_STM32_x86_64_9.3.0/ARMTools/bin/../lib/gcc/arm-atollic-eabi/6.3.1/../../../../arm-atollic-eabi/lib/armv7e-m/fpu/libc.a(lib_a-wctomb_r.o)
                                                  /opt/Atollic_TrueSTUDIO_for_STM32_x86_64_9.3.0/ARMTools/bin/../lib/gcc/arm-atollic-eabi/6.3.1/../../../../arm-atollic-eabi/lib/armv7e-m/fpu/libc.a(lib_a-mbtowc_r.o)
                                                  /opt/Atollic_TrueSTUDIO_for_STM32_x86_64_9.3.0/ARMTools/bin/../lib/gcc/arm-atollic-eabi/6.3.1/../../../../arm-atollic-eabi/lib/armv7e-m/fpu/libc.a(lib_a-localeconv.o)
__gtdf2                                           /opt/Atollic_TrueSTUDIO_for_STM32_x86_64_9.3.0/ARMTools/bin/../lib/gcc/arm-atollic-eabi/6.3.1/armv7e-m/fpu/libgcc.a(_arm_cmpdf2.o)
__hi0bits                                         /opt/Atollic_TrueSTUDIO_for_STM32_x86_64_9.3.0/ARMTools/bin/../lib/gcc/arm-atollic-eabi/6.3.1/../../../../arm-atollic-eabi/lib/armv7e-m/fpu/libc.a(lib_a-mprec.o)
                                                  /opt/Atollic_TrueSTUDIO_for_STM32_x86_64_9.3.0/ARMTools/bin/../lib/gcc/arm-atollic-eabi/6.3.1/../../../../arm-atollic-eabi/lib/armv7e-m/fpu/libc.a(lib_a-dtoa.o)
__i2b                                             /opt/Atollic_TrueSTUDIO_for_STM32_x86_64_9.3.0/ARMTools/bin/../lib/gcc/arm-atollic-eabi/6.3.1/../../../../arm-atollic-eabi/lib/armv7e-m/fpu/libc.a(lib_a-mprec.o)
                                                  /opt/Atollic_TrueSTUDIO_for_STM32_x86_64_9.3.0/ARMTools/bin/../lib/gcc/arm-atollic-eabi/6.3.1/../../../../arm-atollic-eabi/lib/armv7e-m/fpu/libc.a(lib_a-dtoa.o)
__ieee754_sqrt                                    /opt/Atollic_TrueSTUDIO_for_STM32_x86_64_9.3.0/ARMTools/bin/../lib/gcc/arm-atollic-eabi/6.3.1/../../../../arm-atollic-eabi/lib/armv7e-m/fpu/libm.a(lib_a-e_sqrt.o)
                                                  /opt/Atollic_TrueSTUDIO_for_STM32_x86_64_9.3.0/ARMTools/bin/../lib/gcc/arm-atollic-eabi/6.3.1/../../../../arm-atollic-eabi/lib/armv7e-m/fpu/libm.a(lib_a-w_sqrt.o)
__init_array_end                                  /opt/Atollic_TrueSTUDIO_for_STM32_x86_64_9.3.0/ARMTools/bin/../lib/gcc/arm-atollic-eabi/6.3.1/../../../../arm-atollic-eabi/lib/armv7e-m/fpu/libc.a(lib_a-init.o)
__init_array_start                                /opt/Atollic_TrueSTUDIO_for_STM32_x86_64_9.3.0/ARMTools/bin/../lib/gcc/arm-atollic-eabi/6.3.1/../../../../arm-atollic-eabi/lib/armv7e-m/fpu/libc.a(lib_a-init.o)
__io_getchar                                      Core/src/syscalls.o
__io_putchar                                      Core/src/syscalls.o
__ledf2                                           /opt/Atollic_TrueSTUDIO_for_STM32_x86_64_9.3.0/ARMTools/bin/../lib/gcc/arm-atollic-eabi/6.3.1/armv7e-m/fpu/libgcc.a(_arm_cmpdf2.o)
__libc_init_array                                 /opt/Atollic_TrueSTUDIO_for_STM32_x86_64_9.3.0/ARMTools/bin/../lib/gcc/arm-atollic-eabi/6.3.1/../../../../arm-atollic-eabi/lib/armv7e-m/fpu/libc.a(lib_a-init.o)
                                                  startup/startup_stm32f407xx.o
__lo0bits                                         /opt/Atollic_TrueSTUDIO_for_STM32_x86_64_9.3.0/ARMTools/bin/../lib/gcc/arm-atollic-eabi/6.3.1/../../../../arm-atollic-eabi/lib/armv7e-m/fpu/libc.a(lib_a-mprec.o)
__locale_ctype_ptr                                /opt/Atollic_TrueSTUDIO_for_STM32_x86_64_9.3.0/ARMTools/bin/../lib/gcc/arm-atollic-eabi/6.3.1/../../../../arm-atollic-eabi/lib/armv7e-m/fpu/libc.a(lib_a-locale.o)
__locale_ctype_ptr_l                              /opt/Atollic_TrueSTUDIO_for_STM32_x86_64_9.3.0/ARMTools/bin/../lib/gcc/arm-atollic-eabi/6.3.1/../../../../arm-atollic-eabi/lib/armv7e-m/fpu/libc.a(lib_a-locale.o)
__locale_mb_cur_max                               /opt/Atollic_TrueSTUDIO_for_STM32_x86_64_9.3.0/ARMTools/bin/../lib/gcc/arm-atollic-eabi/6.3.1/../../../../arm-atollic-eabi/lib/armv7e-m/fpu/libc.a(lib_a-locale.o)
__localeconv_l                                    /opt/Atollic_TrueSTUDIO_for_STM32_x86_64_9.3.0/ARMTools/bin/../lib/gcc/arm-atollic-eabi/6.3.1/../../../../arm-atollic-eabi/lib/armv7e-m/fpu/libc.a(lib_a-localeconv.o)
__lock___arc4random_mutex                         /opt/Atollic_TrueSTUDIO_for_STM32_x86_64_9.3.0/ARMTools/bin/../lib/gcc/arm-atollic-eabi/6.3.1/../../../../arm-atollic-eabi/lib/armv7e-m/fpu/libc.a(lib_a-lock.o)
__lock___at_quick_exit_mutex                      /opt/Atollic_TrueSTUDIO_for_STM32_x86_64_9.3.0/ARMTools/bin/../lib/gcc/arm-atollic-eabi/6.3.1/../../../../arm-atollic-eabi/lib/armv7e-m/fpu/libc.a(lib_a-lock.o)
__lock___atexit_recursive_mutex                   /opt/Atollic_TrueSTUDIO_for_STM32_x86_64_9.3.0/ARMTools/bin/../lib/gcc/arm-atollic-eabi/6.3.1/../../../../arm-atollic-eabi/lib/armv7e-m/fpu/libc.a(lib_a-lock.o)
__lock___dd_hash_mutex                            /opt/Atollic_TrueSTUDIO_for_STM32_x86_64_9.3.0/ARMTools/bin/../lib/gcc/arm-atollic-eabi/6.3.1/../../../../arm-atollic-eabi/lib/armv7e-m/fpu/libc.a(lib_a-lock.o)
__lock___env_recursive_mutex                      /opt/Atollic_TrueSTUDIO_for_STM32_x86_64_9.3.0/ARMTools/bin/../lib/gcc/arm-atollic-eabi/6.3.1/../../../../arm-atollic-eabi/lib/armv7e-m/fpu/libc.a(lib_a-lock.o)
__lock___malloc_recursive_mutex                   /opt/Atollic_TrueSTUDIO_for_STM32_x86_64_9.3.0/ARMTools/bin/../lib/gcc/arm-atollic-eabi/6.3.1/../../../../arm-atollic-eabi/lib/armv7e-m/fpu/libc.a(lib_a-lock.o)
                                                  /opt/Atollic_TrueSTUDIO_for_STM32_x86_64_9.3.0/ARMTools/bin/../lib/gcc/arm-atollic-eabi/6.3.1/../../../../arm-atollic-eabi/lib/armv7e-m/fpu/libc.a(lib_a-mlock.o)
__lock___sfp_recursive_mutex                      /opt/Atollic_TrueSTUDIO_for_STM32_x86_64_9.3.0/ARMTools/bin/../lib/gcc/arm-atollic-eabi/6.3.1/../../../../arm-atollic-eabi/lib/armv7e-m/fpu/libc.a(lib_a-lock.o)
__lock___sinit_recursive_mutex                    /opt/Atollic_TrueSTUDIO_for_STM32_x86_64_9.3.0/ARMTools/bin/../lib/gcc/arm-atollic-eabi/6.3.1/../../../../arm-atollic-eabi/lib/armv7e-m/fpu/libc.a(lib_a-lock.o)
__lock___tz_mutex                                 /opt/Atollic_TrueSTUDIO_for_STM32_x86_64_9.3.0/ARMTools/bin/../lib/gcc/arm-atollic-eabi/6.3.1/../../../../arm-atollic-eabi/lib/armv7e-m/fpu/libc.a(lib_a-lock.o)
__lshift                                          /opt/Atollic_TrueSTUDIO_for_STM32_x86_64_9.3.0/ARMTools/bin/../lib/gcc/arm-atollic-eabi/6.3.1/../../../../arm-atollic-eabi/lib/armv7e-m/fpu/libc.a(lib_a-mprec.o)
                                                  /opt/Atollic_TrueSTUDIO_for_STM32_x86_64_9.3.0/ARMTools/bin/../lib/gcc/arm-atollic-eabi/6.3.1/../../../../arm-atollic-eabi/lib/armv7e-m/fpu/libc.a(lib_a-dtoa.o)
__ltdf2                                           /opt/Atollic_TrueSTUDIO_for_STM32_x86_64_9.3.0/ARMTools/bin/../lib/gcc/arm-atollic-eabi/6.3.1/armv7e-m/fpu/libgcc.a(_arm_cmpdf2.o)
__malloc_av_                                      /opt/Atollic_TrueSTUDIO_for_STM32_x86_64_9.3.0/ARMTools/bin/../lib/gcc/arm-atollic-eabi/6.3.1/../../../../arm-atollic-eabi/lib/armv7e-m/fpu/libc.a(lib_a-mallocr.o)
                                                  /opt/Atollic_TrueSTUDIO_for_STM32_x86_64_9.3.0/ARMTools/bin/../lib/gcc/arm-atollic-eabi/6.3.1/../../../../arm-atollic-eabi/lib/armv7e-m/fpu/libc.a(lib_a-reallocr.o)
                                                  /opt/Atollic_TrueSTUDIO_for_STM32_x86_64_9.3.0/ARMTools/bin/../lib/gcc/arm-atollic-eabi/6.3.1/../../../../arm-atollic-eabi/lib/armv7e-m/fpu/libc.a(lib_a-freer.o)
__malloc_current_mallinfo                         /opt/Atollic_TrueSTUDIO_for_STM32_x86_64_9.3.0/ARMTools/bin/../lib/gcc/arm-atollic-eabi/6.3.1/../../../../arm-atollic-eabi/lib/armv7e-m/fpu/libc.a(lib_a-mallocr.o)
                                                  /opt/Atollic_TrueSTUDIO_for_STM32_x86_64_9.3.0/ARMTools/bin/../lib/gcc/arm-atollic-eabi/6.3.1/../../../../arm-atollic-eabi/lib/armv7e-m/fpu/libc.a(lib_a-freer.o)
__malloc_lock                                     /opt/Atollic_TrueSTUDIO_for_STM32_x86_64_9.3.0/ARMTools/bin/../lib/gcc/arm-atollic-eabi/6.3.1/../../../../arm-atollic-eabi/lib/armv7e-m/fpu/libc.a(lib_a-mlock.o)
                                                  /opt/Atollic_TrueSTUDIO_for_STM32_x86_64_9.3.0/ARMTools/bin/../lib/gcc/arm-atollic-eabi/6.3.1/../../../../arm-atollic-eabi/lib/armv7e-m/fpu/libc.a(lib_a-reallocr.o)
                                                  /opt/Atollic_TrueSTUDIO_for_STM32_x86_64_9.3.0/ARMTools/bin/../lib/gcc/arm-atollic-eabi/6.3.1/../../../../arm-atollic-eabi/lib/armv7e-m/fpu/libc.a(lib_a-freer.o)
                                                  /opt/Atollic_TrueSTUDIO_for_STM32_x86_64_9.3.0/ARMTools/bin/../lib/gcc/arm-atollic-eabi/6.3.1/../../../../arm-atollic-eabi/lib/armv7e-m/fpu/libc.a(lib_a-mallocr.o)
__malloc_max_sbrked_mem                           /opt/Atollic_TrueSTUDIO_for_STM32_x86_64_9.3.0/ARMTools/bin/../lib/gcc/arm-atollic-eabi/6.3.1/../../../../arm-atollic-eabi/lib/armv7e-m/fpu/libc.a(lib_a-mallocr.o)
__malloc_max_total_mem                            /opt/Atollic_TrueSTUDIO_for_STM32_x86_64_9.3.0/ARMTools/bin/../lib/gcc/arm-atollic-eabi/6.3.1/../../../../arm-atollic-eabi/lib/armv7e-m/fpu/libc.a(lib_a-mallocr.o)
__malloc_sbrk_base                                /opt/Atollic_TrueSTUDIO_for_STM32_x86_64_9.3.0/ARMTools/bin/../lib/gcc/arm-atollic-eabi/6.3.1/../../../../arm-atollic-eabi/lib/armv7e-m/fpu/libc.a(lib_a-mallocr.o)
                                                  /opt/Atollic_TrueSTUDIO_for_STM32_x86_64_9.3.0/ARMTools/bin/../lib/gcc/arm-atollic-eabi/6.3.1/../../../../arm-atollic-eabi/lib/armv7e-m/fpu/libc.a(lib_a-freer.o)
__malloc_top_pad                                  /opt/Atollic_TrueSTUDIO_for_STM32_x86_64_9.3.0/ARMTools/bin/../lib/gcc/arm-atollic-eabi/6.3.1/../../../../arm-atollic-eabi/lib/armv7e-m/fpu/libc.a(lib_a-mallocr.o)
                                                  /opt/Atollic_TrueSTUDIO_for_STM32_x86_64_9.3.0/ARMTools/bin/../lib/gcc/arm-atollic-eabi/6.3.1/../../../../arm-atollic-eabi/lib/armv7e-m/fpu/libc.a(lib_a-freer.o)
__malloc_trim_threshold                           /opt/Atollic_TrueSTUDIO_for_STM32_x86_64_9.3.0/ARMTools/bin/../lib/gcc/arm-atollic-eabi/6.3.1/../../../../arm-atollic-eabi/lib/armv7e-m/fpu/libc.a(lib_a-mallocr.o)
                                                  /opt/Atollic_TrueSTUDIO_for_STM32_x86_64_9.3.0/ARMTools/bin/../lib/gcc/arm-atollic-eabi/6.3.1/../../../../arm-atollic-eabi/lib/armv7e-m/fpu/libc.a(lib_a-freer.o)
__malloc_unlock                                   /opt/Atollic_TrueSTUDIO_for_STM32_x86_64_9.3.0/ARMTools/bin/../lib/gcc/arm-atollic-eabi/6.3.1/../../../../arm-atollic-eabi/lib/armv7e-m/fpu/libc.a(lib_a-mlock.o)
                                                  /opt/Atollic_TrueSTUDIO_for_STM32_x86_64_9.3.0/ARMTools/bin/../lib/gcc/arm-atollic-eabi/6.3.1/../../../../arm-atollic-eabi/lib/armv7e-m/fpu/libc.a(lib_a-reallocr.o)
                                                  /opt/Atollic_TrueSTUDIO_for_STM32_x86_64_9.3.0/ARMTools/bin/../lib/gcc/arm-atollic-eabi/6.3.1/../../../../arm-atollic-eabi/lib/armv7e-m/fpu/libc.a(lib_a-freer.o)
                                                  /opt/Atollic_TrueSTUDIO_for_STM32_x86_64_9.3.0/ARMTools/bin/../lib/gcc/arm-atollic-eabi/6.3.1/../../../../arm-atollic-eabi/lib/armv7e-m/fpu/libc.a(lib_a-mallocr.o)
__mcmp                                            /opt/Atollic_TrueSTUDIO_for_STM32_x86_64_9.3.0/ARMTools/bin/../lib/gcc/arm-atollic-eabi/6.3.1/../../../../arm-atollic-eabi/lib/armv7e-m/fpu/libc.a(lib_a-mprec.o)
                                                  /opt/Atollic_TrueSTUDIO_for_STM32_x86_64_9.3.0/ARMTools/bin/../lib/gcc/arm-atollic-eabi/6.3.1/../../../../arm-atollic-eabi/lib/armv7e-m/fpu/libc.a(lib_a-dtoa.o)
__mdiff                                           /opt/Atollic_TrueSTUDIO_for_STM32_x86_64_9.3.0/ARMTools/bin/../lib/gcc/arm-atollic-eabi/6.3.1/../../../../arm-atollic-eabi/lib/armv7e-m/fpu/libc.a(lib_a-mprec.o)
                                                  /opt/Atollic_TrueSTUDIO_for_STM32_x86_64_9.3.0/ARMTools/bin/../lib/gcc/arm-atollic-eabi/6.3.1/../../../../arm-atollic-eabi/lib/armv7e-m/fpu/libc.a(lib_a-dtoa.o)
__mprec_bigtens                                   /opt/Atollic_TrueSTUDIO_for_STM32_x86_64_9.3.0/ARMTools/bin/../lib/gcc/arm-atollic-eabi/6.3.1/../../../../arm-atollic-eabi/lib/armv7e-m/fpu/libc.a(lib_a-mprec.o)
                                                  /opt/Atollic_TrueSTUDIO_for_STM32_x86_64_9.3.0/ARMTools/bin/../lib/gcc/arm-atollic-eabi/6.3.1/../../../../arm-atollic-eabi/lib/armv7e-m/fpu/libc.a(lib_a-dtoa.o)
__mprec_tens                                      /opt/Atollic_TrueSTUDIO_for_STM32_x86_64_9.3.0/ARMTools/bin/../lib/gcc/arm-atollic-eabi/6.3.1/../../../../arm-atollic-eabi/lib/armv7e-m/fpu/libc.a(lib_a-mprec.o)
                                                  /opt/Atollic_TrueSTUDIO_for_STM32_x86_64_9.3.0/ARMTools/bin/../lib/gcc/arm-atollic-eabi/6.3.1/../../../../arm-atollic-eabi/lib/armv7e-m/fpu/libc.a(lib_a-dtoa.o)
__mprec_tinytens                                  /opt/Atollic_TrueSTUDIO_for_STM32_x86_64_9.3.0/ARMTools/bin/../lib/gcc/arm-atollic-eabi/6.3.1/../../../../arm-atollic-eabi/lib/armv7e-m/fpu/libc.a(lib_a-mprec.o)
__muldf3                                          /opt/Atollic_TrueSTUDIO_for_STM32_x86_64_9.3.0/ARMTools/bin/../lib/gcc/arm-atollic-eabi/6.3.1/armv7e-m/fpu/libgcc.a(_arm_muldivdf3.o)
__multadd                                         /opt/Atollic_TrueSTUDIO_for_STM32_x86_64_9.3.0/ARMTools/bin/../lib/gcc/arm-atollic-eabi/6.3.1/../../../../arm-atollic-eabi/lib/armv7e-m/fpu/libc.a(lib_a-mprec.o)
                                                  /opt/Atollic_TrueSTUDIO_for_STM32_x86_64_9.3.0/ARMTools/bin/../lib/gcc/arm-atollic-eabi/6.3.1/../../../../arm-atollic-eabi/lib/armv7e-m/fpu/libc.a(lib_a-dtoa.o)
__multiply                                        /opt/Atollic_TrueSTUDIO_for_STM32_x86_64_9.3.0/ARMTools/bin/../lib/gcc/arm-atollic-eabi/6.3.1/../../../../arm-atollic-eabi/lib/armv7e-m/fpu/libc.a(lib_a-mprec.o)
                                                  /opt/Atollic_TrueSTUDIO_for_STM32_x86_64_9.3.0/ARMTools/bin/../lib/gcc/arm-atollic-eabi/6.3.1/../../../../arm-atollic-eabi/lib/armv7e-m/fpu/libc.a(lib_a-dtoa.o)
__nedf2                                           /opt/Atollic_TrueSTUDIO_for_STM32_x86_64_9.3.0/ARMTools/bin/../lib/gcc/arm-atollic-eabi/6.3.1/armv7e-m/fpu/libgcc.a(_arm_cmpdf2.o)
__pow5mult                                        /opt/Atollic_TrueSTUDIO_for_STM32_x86_64_9.3.0/ARMTools/bin/../lib/gcc/arm-atollic-eabi/6.3.1/../../../../arm-atollic-eabi/lib/armv7e-m/fpu/libc.a(lib_a-mprec.o)
                                                  /opt/Atollic_TrueSTUDIO_for_STM32_x86_64_9.3.0/ARMTools/bin/../lib/gcc/arm-atollic-eabi/6.3.1/../../../../arm-atollic-eabi/lib/armv7e-m/fpu/libc.a(lib_a-dtoa.o)
__preinit_array_end                               /opt/Atollic_TrueSTUDIO_for_STM32_x86_64_9.3.0/ARMTools/bin/../lib/gcc/arm-atollic-eabi/6.3.1/../../../../arm-atollic-eabi/lib/armv7e-m/fpu/libc.a(lib_a-init.o)
__preinit_array_start                             /opt/Atollic_TrueSTUDIO_for_STM32_x86_64_9.3.0/ARMTools/bin/../lib/gcc/arm-atollic-eabi/6.3.1/../../../../arm-atollic-eabi/lib/armv7e-m/fpu/libc.a(lib_a-init.o)
__ratio                                           /opt/Atollic_TrueSTUDIO_for_STM32_x86_64_9.3.0/ARMTools/bin/../lib/gcc/arm-atollic-eabi/6.3.1/../../../../arm-atollic-eabi/lib/armv7e-m/fpu/libc.a(lib_a-mprec.o)
__register_frame_info                             /opt/Atollic_TrueSTUDIO_for_STM32_x86_64_9.3.0/ARMTools/bin/../lib/gcc/arm-atollic-eabi/6.3.1/armv7e-m/fpu/crtbegin.o
__retarget_lock_acquire                           /opt/Atollic_TrueSTUDIO_for_STM32_x86_64_9.3.0/ARMTools/bin/../lib/gcc/arm-atollic-eabi/6.3.1/../../../../arm-atollic-eabi/lib/armv7e-m/fpu/libc.a(lib_a-lock.o)
__retarget_lock_acquire_recursive                 /opt/Atollic_TrueSTUDIO_for_STM32_x86_64_9.3.0/ARMTools/bin/../lib/gcc/arm-atollic-eabi/6.3.1/../../../../arm-atollic-eabi/lib/armv7e-m/fpu/libc.a(lib_a-lock.o)
                                                  /opt/Atollic_TrueSTUDIO_for_STM32_x86_64_9.3.0/ARMTools/bin/../lib/gcc/arm-atollic-eabi/6.3.1/../../../../arm-atollic-eabi/lib/armv7e-m/fpu/libc.a(lib_a-mlock.o)
__retarget_lock_close                             /opt/Atollic_TrueSTUDIO_for_STM32_x86_64_9.3.0/ARMTools/bin/../lib/gcc/arm-atollic-eabi/6.3.1/../../../../arm-atollic-eabi/lib/armv7e-m/fpu/libc.a(lib_a-lock.o)
__retarget_lock_close_recursive                   /opt/Atollic_TrueSTUDIO_for_STM32_x86_64_9.3.0/ARMTools/bin/../lib/gcc/arm-atollic-eabi/6.3.1/../../../../arm-atollic-eabi/lib/armv7e-m/fpu/libc.a(lib_a-lock.o)
__retarget_lock_init                              /opt/Atollic_TrueSTUDIO_for_STM32_x86_64_9.3.0/ARMTools/bin/../lib/gcc/arm-atollic-eabi/6.3.1/../../../../arm-atollic-eabi/lib/armv7e-m/fpu/libc.a(lib_a-lock.o)
__retarget_lock_init_recursive                    /opt/Atollic_TrueSTUDIO_for_STM32_x86_64_9.3.0/ARMTools/bin/../lib/gcc/arm-atollic-eabi/6.3.1/../../../../arm-atollic-eabi/lib/armv7e-m/fpu/libc.a(lib_a-lock.o)
__retarget_lock_release                           /opt/Atollic_TrueSTUDIO_for_STM32_x86_64_9.3.0/ARMTools/bin/../lib/gcc/arm-atollic-eabi/6.3.1/../../../../arm-atollic-eabi/lib/armv7e-m/fpu/libc.a(lib_a-lock.o)
__retarget_lock_release_recursive                 /opt/Atollic_TrueSTUDIO_for_STM32_x86_64_9.3.0/ARMTools/bin/../lib/gcc/arm-atollic-eabi/6.3.1/../../../../arm-atollic-eabi/lib/armv7e-m/fpu/libc.a(lib_a-lock.o)
                                                  /opt/Atollic_TrueSTUDIO_for_STM32_x86_64_9.3.0/ARMTools/bin/../lib/gcc/arm-atollic-eabi/6.3.1/../../../../arm-atollic-eabi/lib/armv7e-m/fpu/libc.a(lib_a-mlock.o)
__retarget_lock_try_acquire                       /opt/Atollic_TrueSTUDIO_for_STM32_x86_64_9.3.0/ARMTools/bin/../lib/gcc/arm-atollic-eabi/6.3.1/../../../../arm-atollic-eabi/lib/armv7e-m/fpu/libc.a(lib_a-lock.o)
__retarget_lock_try_acquire_recursive             /opt/Atollic_TrueSTUDIO_for_STM32_x86_64_9.3.0/ARMTools/bin/../lib/gcc/arm-atollic-eabi/6.3.1/../../../../arm-atollic-eabi/lib/armv7e-m/fpu/libc.a(lib_a-lock.o)
__s2b                                             /opt/Atollic_TrueSTUDIO_for_STM32_x86_64_9.3.0/ARMTools/bin/../lib/gcc/arm-atollic-eabi/6.3.1/../../../../arm-atollic-eabi/lib/armv7e-m/fpu/libc.a(lib_a-mprec.o)
__sf_fake_stderr                                  /opt/Atollic_TrueSTUDIO_for_STM32_x86_64_9.3.0/ARMTools/bin/../lib/gcc/arm-atollic-eabi/6.3.1/../../../../arm-atollic-eabi/lib/armv7e-m/fpu/libc.a(lib_a-impure.o)
__sf_fake_stdin                                   /opt/Atollic_TrueSTUDIO_for_STM32_x86_64_9.3.0/ARMTools/bin/../lib/gcc/arm-atollic-eabi/6.3.1/../../../../arm-atollic-eabi/lib/armv7e-m/fpu/libc.a(lib_a-impure.o)
__sf_fake_stdout                                  /opt/Atollic_TrueSTUDIO_for_STM32_x86_64_9.3.0/ARMTools/bin/../lib/gcc/arm-atollic-eabi/6.3.1/../../../../arm-atollic-eabi/lib/armv7e-m/fpu/libc.a(lib_a-impure.o)
__ssprint_r                                       /opt/Atollic_TrueSTUDIO_for_STM32_x86_64_9.3.0/ARMTools/bin/../lib/gcc/arm-atollic-eabi/6.3.1/../../../../arm-atollic-eabi/lib/armv7e-m/fpu/libc.a(lib_a-svfiprintf.o)
                                                  /opt/Atollic_TrueSTUDIO_for_STM32_x86_64_9.3.0/ARMTools/bin/../lib/gcc/arm-atollic-eabi/6.3.1/../../../../arm-atollic-eabi/lib/armv7e-m/fpu/libc.a(lib_a-svfprintf.o)
__subdf3                                          /opt/Atollic_TrueSTUDIO_for_STM32_x86_64_9.3.0/ARMTools/bin/../lib/gcc/arm-atollic-eabi/6.3.1/armv7e-m/fpu/libgcc.a(_arm_addsubdf3.o)
__udivmoddi4                                      /opt/Atollic_TrueSTUDIO_for_STM32_x86_64_9.3.0/ARMTools/bin/../lib/gcc/arm-atollic-eabi/6.3.1/armv7e-m/fpu/libgcc.a(_udivmoddi4.o)
                                                  /opt/Atollic_TrueSTUDIO_for_STM32_x86_64_9.3.0/ARMTools/bin/../lib/gcc/arm-atollic-eabi/6.3.1/armv7e-m/fpu/libgcc.a(_aeabi_uldivmod.o)
                                                  /opt/Atollic_TrueSTUDIO_for_STM32_x86_64_9.3.0/ARMTools/bin/../lib/gcc/arm-atollic-eabi/6.3.1/armv7e-m/fpu/libgcc.a(_aeabi_ldivmod.o)
__ulp                                             /opt/Atollic_TrueSTUDIO_for_STM32_x86_64_9.3.0/ARMTools/bin/../lib/gcc/arm-atollic-eabi/6.3.1/../../../../arm-atollic-eabi/lib/armv7e-m/fpu/libc.a(lib_a-mprec.o)
__unorddf2                                        /opt/Atollic_TrueSTUDIO_for_STM32_x86_64_9.3.0/ARMTools/bin/../lib/gcc/arm-atollic-eabi/6.3.1/armv7e-m/fpu/libgcc.a(_arm_unorddf2.o)
_calloc_r                                         /opt/Atollic_TrueSTUDIO_for_STM32_x86_64_9.3.0/ARMTools/bin/../lib/gcc/arm-atollic-eabi/6.3.1/../../../../arm-atollic-eabi/lib/armv7e-m/fpu/libc.a(lib_a-callocr.o)
                                                  /opt/Atollic_TrueSTUDIO_for_STM32_x86_64_9.3.0/ARMTools/bin/../lib/gcc/arm-atollic-eabi/6.3.1/../../../../arm-atollic-eabi/lib/armv7e-m/fpu/libc.a(lib_a-mprec.o)
_close                                            Core/src/syscalls.o
_ctype_                                           /opt/Atollic_TrueSTUDIO_for_STM32_x86_64_9.3.0/ARMTools/bin/../lib/gcc/arm-atollic-eabi/6.3.1/../../../../arm-atollic-eabi/lib/armv7e-m/fpu/libc.a(lib_a-ctype_.o)
                                                  /opt/Atollic_TrueSTUDIO_for_STM32_x86_64_9.3.0/ARMTools/bin/../lib/gcc/arm-atollic-eabi/6.3.1/../../../../arm-atollic-eabi/lib/armv7e-m/fpu/libc.a(lib_a-locale.o)
_dtoa_r                                           /opt/Atollic_TrueSTUDIO_for_STM32_x86_64_9.3.0/ARMTools/bin/../lib/gcc/arm-atollic-eabi/6.3.1/../../../../arm-atollic-eabi/lib/armv7e-m/fpu/libc.a(lib_a-dtoa.o)
                                                  /opt/Atollic_TrueSTUDIO_for_STM32_x86_64_9.3.0/ARMTools/bin/../lib/gcc/arm-atollic-eabi/6.3.1/../../../../arm-atollic-eabi/lib/armv7e-m/fpu/libc.a(lib_a-svfprintf.o)
_ebss                                             startup/startup_stm32f407xx.o
_edata                                            startup/startup_stm32f407xx.o
_estack                                           startup/startup_stm32f407xx.o
_execve                                           Core/src/syscalls.o
_exit                                             Core/src/syscalls.o
_fini                                             /opt/Atollic_TrueSTUDIO_for_STM32_x86_64_9.3.0/ARMTools/bin/../lib/gcc/arm-atollic-eabi/6.3.1/armv7e-m/fpu/crti.o
_fork                                             Core/src/syscalls.o
_free_r                                           /opt/Atollic_TrueSTUDIO_for_STM32_x86_64_9.3.0/ARMTools/bin/../lib/gcc/arm-atollic-eabi/6.3.1/../../../../arm-atollic-eabi/lib/armv7e-m/fpu/libc.a(lib_a-freer.o)
                                                  /opt/Atollic_TrueSTUDIO_for_STM32_x86_64_9.3.0/ARMTools/bin/../lib/gcc/arm-atollic-eabi/6.3.1/../../../../arm-atollic-eabi/lib/armv7e-m/fpu/libc.a(lib_a-reallocr.o)
                                                  /opt/Atollic_TrueSTUDIO_for_STM32_x86_64_9.3.0/ARMTools/bin/../lib/gcc/arm-atollic-eabi/6.3.1/../../../../arm-atollic-eabi/lib/armv7e-m/fpu/libc.a(lib_a-svfiprintf.o)
                                                  /opt/Atollic_TrueSTUDIO_for_STM32_x86_64_9.3.0/ARMTools/bin/../lib/gcc/arm-atollic-eabi/6.3.1/../../../../arm-atollic-eabi/lib/armv7e-m/fpu/libc.a(lib_a-reent.o)
                                                  /opt/Atollic_TrueSTUDIO_for_STM32_x86_64_9.3.0/ARMTools/bin/../lib/gcc/arm-atollic-eabi/6.3.1/../../../../arm-atollic-eabi/lib/armv7e-m/fpu/libc.a(lib_a-mallocr.o)
                                                  /opt/Atollic_TrueSTUDIO_for_STM32_x86_64_9.3.0/ARMTools/bin/../lib/gcc/arm-atollic-eabi/6.3.1/../../../../arm-atollic-eabi/lib/armv7e-m/fpu/libc.a(lib_a-malloc.o)
_fstat                                            Core/src/syscalls.o
_getpid                                           Core/src/syscalls.o
_global_impure_ptr                                /opt/Atollic_TrueSTUDIO_for_STM32_x86_64_9.3.0/ARMTools/bin/../lib/gcc/arm-atollic-eabi/6.3.1/../../../../arm-atollic-eabi/lib/armv7e-m/fpu/libc.a(lib_a-impure.o)
_impure_ptr                                       /opt/Atollic_TrueSTUDIO_for_STM32_x86_64_9.3.0/ARMTools/bin/../lib/gcc/arm-atollic-eabi/6.3.1/../../../../arm-atollic-eabi/lib/armv7e-m/fpu/libc.a(lib_a-impure.o)
                                                  /opt/Atollic_TrueSTUDIO_for_STM32_x86_64_9.3.0/ARMTools/bin/../lib/gcc/arm-atollic-eabi/6.3.1/../../../../arm-atollic-eabi/lib/armv7e-m/fpu/libc.a(lib_a-wctomb_r.o)
                                                  /opt/Atollic_TrueSTUDIO_for_STM32_x86_64_9.3.0/ARMTools/bin/../lib/gcc/arm-atollic-eabi/6.3.1/../../../../arm-atollic-eabi/lib/armv7e-m/fpu/libc.a(lib_a-mbtowc_r.o)
                                                  /opt/Atollic_TrueSTUDIO_for_STM32_x86_64_9.3.0/ARMTools/bin/../lib/gcc/arm-atollic-eabi/6.3.1/../../../../arm-atollic-eabi/lib/armv7e-m/fpu/libc.a(lib_a-locale.o)
                                                  /opt/Atollic_TrueSTUDIO_for_STM32_x86_64_9.3.0/ARMTools/bin/../lib/gcc/arm-atollic-eabi/6.3.1/../../../../arm-atollic-eabi/lib/armv7e-m/fpu/libc.a(lib_a-reent.o)
                                                  /opt/Atollic_TrueSTUDIO_for_STM32_x86_64_9.3.0/ARMTools/bin/../lib/gcc/arm-atollic-eabi/6.3.1/../../../../arm-atollic-eabi/lib/armv7e-m/fpu/libc.a(lib_a-localeconv.o)
                                                  /opt/Atollic_TrueSTUDIO_for_STM32_x86_64_9.3.0/ARMTools/bin/../lib/gcc/arm-atollic-eabi/6.3.1/../../../../arm-atollic-eabi/lib/armv7e-m/fpu/libc.a(lib_a-sprintf.o)
                                                  /opt/Atollic_TrueSTUDIO_for_STM32_x86_64_9.3.0/ARMTools/bin/../lib/gcc/arm-atollic-eabi/6.3.1/../../../../arm-atollic-eabi/lib/armv7e-m/fpu/libc.a(lib_a-malloc.o)
                                                  /opt/Atollic_TrueSTUDIO_for_STM32_x86_64_9.3.0/ARMTools/bin/../lib/gcc/arm-atollic-eabi/6.3.1/../../../../arm-atollic-eabi/lib/armv7e-m/fpu/libc.a(lib_a-errno.o)
_init                                             /opt/Atollic_TrueSTUDIO_for_STM32_x86_64_9.3.0/ARMTools/bin/../lib/gcc/arm-atollic-eabi/6.3.1/armv7e-m/fpu/crti.o
                                                  /opt/Atollic_TrueSTUDIO_for_STM32_x86_64_9.3.0/ARMTools/bin/../lib/gcc/arm-atollic-eabi/6.3.1/../../../../arm-atollic-eabi/lib/armv7e-m/fpu/libc.a(lib_a-init.o)
_isatty                                           Core/src/syscalls.o
_kill                                             Core/src/syscalls.o
_link                                             Core/src/syscalls.o
_localeconv_r                                     /opt/Atollic_TrueSTUDIO_for_STM32_x86_64_9.3.0/ARMTools/bin/../lib/gcc/arm-atollic-eabi/6.3.1/../../../../arm-atollic-eabi/lib/armv7e-m/fpu/libc.a(lib_a-localeconv.o)
                                                  /opt/Atollic_TrueSTUDIO_for_STM32_x86_64_9.3.0/ARMTools/bin/../lib/gcc/arm-atollic-eabi/6.3.1/../../../../arm-atollic-eabi/lib/armv7e-m/fpu/libc.a(lib_a-svfprintf.o)
_lseek                                            Core/src/syscalls.o
_malloc_r                                         /opt/Atollic_TrueSTUDIO_for_STM32_x86_64_9.3.0/ARMTools/bin/../lib/gcc/arm-atollic-eabi/6.3.1/../../../../arm-atollic-eabi/lib/armv7e-m/fpu/libc.a(lib_a-mallocr.o)
                                                  /opt/Atollic_TrueSTUDIO_for_STM32_x86_64_9.3.0/ARMTools/bin/../lib/gcc/arm-atollic-eabi/6.3.1/../../../../arm-atollic-eabi/lib/armv7e-m/fpu/libc.a(lib_a-reallocr.o)
                                                  /opt/Atollic_TrueSTUDIO_for_STM32_x86_64_9.3.0/ARMTools/bin/../lib/gcc/arm-atollic-eabi/6.3.1/../../../../arm-atollic-eabi/lib/armv7e-m/fpu/libc.a(lib_a-callocr.o)
                                                  /opt/Atollic_TrueSTUDIO_for_STM32_x86_64_9.3.0/ARMTools/bin/../lib/gcc/arm-atollic-eabi/6.3.1/../../../../arm-atollic-eabi/lib/armv7e-m/fpu/libc.a(lib_a-svfiprintf.o)
                                                  /opt/Atollic_TrueSTUDIO_for_STM32_x86_64_9.3.0/ARMTools/bin/../lib/gcc/arm-atollic-eabi/6.3.1/../../../../arm-atollic-eabi/lib/armv7e-m/fpu/libc.a(lib_a-svfprintf.o)
                                                  /opt/Atollic_TrueSTUDIO_for_STM32_x86_64_9.3.0/ARMTools/bin/../lib/gcc/arm-atollic-eabi/6.3.1/../../../../arm-atollic-eabi/lib/armv7e-m/fpu/libc.a(lib_a-malloc.o)
_malloc_trim_r                                    /opt/Atollic_TrueSTUDIO_for_STM32_x86_64_9.3.0/ARMTools/bin/../lib/gcc/arm-atollic-eabi/6.3.1/../../../../arm-atollic-eabi/lib/armv7e-m/fpu/libc.a(lib_a-freer.o)
_mbtowc_r                                         /opt/Atollic_TrueSTUDIO_for_STM32_x86_64_9.3.0/ARMTools/bin/../lib/gcc/arm-atollic-eabi/6.3.1/../../../../arm-atollic-eabi/lib/armv7e-m/fpu/libc.a(lib_a-mbtowc_r.o)
_mprec_log10                                      /opt/Atollic_TrueSTUDIO_for_STM32_x86_64_9.3.0/ARMTools/bin/../lib/gcc/arm-atollic-eabi/6.3.1/../../../../arm-atollic-eabi/lib/armv7e-m/fpu/libc.a(lib_a-mprec.o)
_open                                             Core/src/syscalls.o
_read                                             Core/src/syscalls.o
_realloc_r                                        /opt/Atollic_TrueSTUDIO_for_STM32_x86_64_9.3.0/ARMTools/bin/../lib/gcc/arm-atollic-eabi/6.3.1/../../../../arm-atollic-eabi/lib/armv7e-m/fpu/libc.a(lib_a-reallocr.o)
                                                  /opt/Atollic_TrueSTUDIO_for_STM32_x86_64_9.3.0/ARMTools/bin/../lib/gcc/arm-atollic-eabi/6.3.1/../../../../arm-atollic-eabi/lib/armv7e-m/fpu/libc.a(lib_a-svfiprintf.o)
_reclaim_reent                                    /opt/Atollic_TrueSTUDIO_for_STM32_x86_64_9.3.0/ARMTools/bin/../lib/gcc/arm-atollic-eabi/6.3.1/../../../../arm-atollic-eabi/lib/armv7e-m/fpu/libc.a(lib_a-reent.o)
_sbrk                                             Core/src/syscalls.o
                                                  /opt/Atollic_TrueSTUDIO_for_STM32_x86_64_9.3.0/ARMTools/bin/../lib/gcc/arm-atollic-eabi/6.3.1/../../../../arm-atollic-eabi/lib/armv7e-m/fpu/libc.a(lib_a-sbrkr.o)
_sbrk_r                                           /opt/Atollic_TrueSTUDIO_for_STM32_x86_64_9.3.0/ARMTools/bin/../lib/gcc/arm-atollic-eabi/6.3.1/../../../../arm-atollic-eabi/lib/armv7e-m/fpu/libc.a(lib_a-sbrkr.o)
                                                  /opt/Atollic_TrueSTUDIO_for_STM32_x86_64_9.3.0/ARMTools/bin/../lib/gcc/arm-atollic-eabi/6.3.1/../../../../arm-atollic-eabi/lib/armv7e-m/fpu/libc.a(lib_a-freer.o)
                                                  /opt/Atollic_TrueSTUDIO_for_STM32_x86_64_9.3.0/ARMTools/bin/../lib/gcc/arm-atollic-eabi/6.3.1/../../../../arm-atollic-eabi/lib/armv7e-m/fpu/libc.a(lib_a-mallocr.o)
_sbss                                             startup/startup_stm32f407xx.o
_sdata                                            startup/startup_stm32f407xx.o
_setlocale_r                                      /opt/Atollic_TrueSTUDIO_for_STM32_x86_64_9.3.0/ARMTools/bin/../lib/gcc/arm-atollic-eabi/6.3.1/../../../../arm-atollic-eabi/lib/armv7e-m/fpu/libc.a(lib_a-locale.o)
_sidata                                           startup/startup_stm32f407xx.o
_sprintf_r                                        /opt/Atollic_TrueSTUDIO_for_STM32_x86_64_9.3.0/ARMTools/bin/../lib/gcc/arm-atollic-eabi/6.3.1/../../../../arm-atollic-eabi/lib/armv7e-m/fpu/libc.a(lib_a-sprintf.o)
_stat                                             Core/src/syscalls.o
_svfiprintf_r                                     /opt/Atollic_TrueSTUDIO_for_STM32_x86_64_9.3.0/ARMTools/bin/../lib/gcc/arm-atollic-eabi/6.3.1/../../../../arm-atollic-eabi/lib/armv7e-m/fpu/libc.a(lib_a-svfiprintf.o)
_svfprintf_r                                      /opt/Atollic_TrueSTUDIO_for_STM32_x86_64_9.3.0/ARMTools/bin/../lib/gcc/arm-atollic-eabi/6.3.1/../../../../arm-atollic-eabi/lib/armv7e-m/fpu/libc.a(lib_a-svfprintf.o)
                                                  /opt/Atollic_TrueSTUDIO_for_STM32_x86_64_9.3.0/ARMTools/bin/../lib/gcc/arm-atollic-eabi/6.3.1/../../../../arm-atollic-eabi/lib/armv7e-m/fpu/libc.a(lib_a-sprintf.o)
_times                                            Core/src/syscalls.o
_unlink                                           Core/src/syscalls.o
_wait                                             Core/src/syscalls.o
_wctomb_r                                         /opt/Atollic_TrueSTUDIO_for_STM32_x86_64_9.3.0/ARMTools/bin/../lib/gcc/arm-atollic-eabi/6.3.1/../../../../arm-atollic-eabi/lib/armv7e-m/fpu/libc.a(lib_a-wctomb_r.o)
_write                                            Source/debug.o
                                                  Core/src/syscalls.o
analogHandle                                      Core/src/freertos.o
analogTask                                        Source/Tasks/analog.o
                                                  Core/src/freertos.o
analog_attributes                                 Core/src/freertos.o
bmp280                                            Source/bmp280.o
                                                  Source/Timers/heartbeat.o
                                                  Core/src/freertos.o
bmp280_force_measurement                          Source/bmp280.o
bmp280_init                                       Source/bmp280.o
                                                  Core/src/freertos.o
bmp280_init_default_params                        Source/bmp280.o
                                                  Core/src/freertos.o
bmp280_is_measuring                               Source/bmp280.o
bmp280_read_fixed                                 Source/bmp280.o
                                                  Source/Timers/heartbeat.o
bmp280_read_float                                 Source/bmp280.o
cleanup_glue                                      /opt/Atollic_TrueSTUDIO_for_STM32_x86_64_9.3.0/ARMTools/bin/../lib/gcc/arm-atollic-eabi/6.3.1/../../../../arm-atollic-eabi/lib/armv7e-m/fpu/libc.a(lib_a-reent.o)
communicationHandle                               Core/src/freertos.o
communicationTask                                 Source/Tasks/communication.o
                                                  Core/src/freertos.o
communication_attributes                          Core/src/freertos.o
config                                            Source/config.o
                                                  Source/Tasks/communication.o
                                                  Source/Tasks/analog.o
                                                  Core/src/main.o
configureTimerForRunTimeStats                     Core/src/freertos.o
                                                  Middlewares/Third_Party/FreeRTOS/Source/tasks.o
crc32                                             Source/crc32.o
                                                  Source/Tasks/communication.o
eTaskGetState                                     Middlewares/Third_Party/FreeRTOS/Source/tasks.o
                                                  Middlewares/Third_Party/FreeRTOS/Source/CMSIS_RTOS_V2/cmsis_os2.o
end                                               Core/src/syscalls.o
envelopeTimeout                                   Source/Timers/envelope.o
                                                  Core/src/freertos.o
envelopeTimeoutTimerHandle                        Core/src/freertos.o
                                                  Source/Timers/envelope.o
                                                  Source/Tasks/communication.o
envelopeTimeoutTimer_attributes                   Core/src/freertos.o
envelope_CDC_Transmit                             Source/Tasks/communication.o
environ                                           Core/src/syscalls.o
errno                                             /opt/Atollic_TrueSTUDIO_for_STM32_x86_64_9.3.0/ARMTools/bin/../lib/gcc/arm-atollic-eabi/6.3.1/../../../../arm-atollic-eabi/lib/armv7e-m/fpu/libc.a(lib_a-reent.o)
                                                  /opt/Atollic_TrueSTUDIO_for_STM32_x86_64_9.3.0/ARMTools/bin/../lib/gcc/arm-atollic-eabi/6.3.1/../../../../arm-atollic-eabi/lib/armv7e-m/fpu/libc.a(lib_a-sbrkr.o)
free                                              /opt/Atollic_TrueSTUDIO_for_STM32_x86_64_9.3.0/ARMTools/bin/../lib/gcc/arm-atollic-eabi/6.3.1/../../../../arm-atollic-eabi/lib/armv7e-m/fpu/libc.a(lib_a-malloc.o)
                                                  Middlewares/ST/STM32_USB_Device_Library/Class/CDC/Src/usbd_cdc.o
g_pfnVectors                                      startup/startup_stm32f407xx.o
getRunTimeCounterValue                            Core/src/freertos.o
                                                  Middlewares/Third_Party/FreeRTOS/Source/tasks.o
hUsbDeviceFS                                      USB_DEVICE/App/usb_device.o
                                                  USB_DEVICE/App/usbd_cdc_if.o
hadc1                                             Core/src/adc.o
                                                  Core/src/freertos.o
hcan1                                             Core/src/can.o
hdac                                              Core/src/dac.o
                                                  Core/src/stm32f4xx_it.o
hdma_adc1                                         Core/src/adc.o
                                                  Core/src/stm32f4xx_it.o
heartBeat                                         Source/Timers/heartbeat.o
                                                  Core/src/freertos.o
heartBeatTimerHandle                              Core/src/freertos.o
heartBeatTimer_attributes                         Core/src/freertos.o
hi2c1                                             Core/src/i2c.o
                                                  Core/src/freertos.o
hpcd_USB_OTG_FS                                   USB_DEVICE/Target/usbd_conf.o
                                                  Core/src/stm32f4xx_it.o
htim1                                             Core/src/tim.o
htim2                                             Core/src/tim.o
htim5                                             Core/src/tim.o
htim6                                             Core/src/stm32f4xx_hal_timebase_tim.o
                                                  Core/src/stm32f4xx_it.o
htim8                                             Core/src/tim.o
hub                                               Source/hub.o
                                                  Source/Timers/heartbeat.o
hubTimeout                                        Source/hub.o
hubUpdate                                         Source/hub.o
hubWatchDog                                       Source/hub.o
                                                  Core/src/freertos.o
hubWatchDogTimerHandle                            Core/src/freertos.o
hubWatchDogTimer_attributes                       Core/src/freertos.o
hx                                                Source/hx711.o
                                                  Core/src/main.o
initialise_monitor_handles                        Core/src/syscalls.o
localeconv                                        /opt/Atollic_TrueSTUDIO_for_STM32_x86_64_9.3.0/ARMTools/bin/../lib/gcc/arm-atollic-eabi/6.3.1/../../../../arm-atollic-eabi/lib/armv7e-m/fpu/libc.a(lib_a-localeconv.o)
main                                              Core/src/main.o
                                                  startup/startup_stm32f407xx.o
malloc                                            /opt/Atollic_TrueSTUDIO_for_STM32_x86_64_9.3.0/ARMTools/bin/../lib/gcc/arm-atollic-eabi/6.3.1/../../../../arm-atollic-eabi/lib/armv7e-m/fpu/libc.a(lib_a-malloc.o)
                                                  /opt/Atollic_TrueSTUDIO_for_STM32_x86_64_9.3.0/ARMTools/bin/../lib/gcc/arm-atollic-eabi/6.3.1/../../../../arm-atollic-eabi/lib/armv7e-m/fpu/libc.a(lib_a-mprec.o)
                                                  /opt/Atollic_TrueSTUDIO_for_STM32_x86_64_9.3.0/ARMTools/bin/../lib/gcc/arm-atollic-eabi/6.3.1/../../../../arm-atollic-eabi/lib/armv7e-m/fpu/libc.a(lib_a-dtoa.o)
                                                  Middlewares/ST/STM32_USB_Device_Library/Class/CDC/Src/usbd_cdc.o
malloc_getpagesize_P                              /opt/Atollic_TrueSTUDIO_for_STM32_x86_64_9.3.0/ARMTools/bin/../lib/gcc/arm-atollic-eabi/6.3.1/../../../../arm-atollic-eabi/lib/armv7e-m/fpu/libc.a(lib_a-freer.o)
                                                  /opt/Atollic_TrueSTUDIO_for_STM32_x86_64_9.3.0/ARMTools/bin/../lib/gcc/arm-atollic-eabi/6.3.1/../../../../arm-atollic-eabi/lib/armv7e-m/fpu/libc.a(lib_a-mallocr.o)
matherr                                           /opt/Atollic_TrueSTUDIO_for_STM32_x86_64_9.3.0/ARMTools/bin/../lib/gcc/arm-atollic-eabi/6.3.1/../../../../arm-atollic-eabi/lib/armv7e-m/fpu/libm.a(lib_a-s_matherr.o)
                                                  /opt/Atollic_TrueSTUDIO_for_STM32_x86_64_9.3.0/ARMTools/bin/../lib/gcc/arm-atollic-eabi/6.3.1/../../../../arm-atollic-eabi/lib/armv7e-m/fpu/libm.a(lib_a-w_sqrt.o)
memchr                                            /opt/Atollic_TrueSTUDIO_for_STM32_x86_64_9.3.0/ARMTools/bin/../lib/gcc/arm-atollic-eabi/6.3.1/../../../../arm-atollic-eabi/lib/armv7e-m/fpu/libc.a(lib_a-memchr.o)
                                                  /opt/Atollic_TrueSTUDIO_for_STM32_x86_64_9.3.0/ARMTools/bin/../lib/gcc/arm-atollic-eabi/6.3.1/../../../../arm-atollic-eabi/lib/armv7e-m/fpu/libc.a(lib_a-svfiprintf.o)
                                                  /opt/Atollic_TrueSTUDIO_for_STM32_x86_64_9.3.0/ARMTools/bin/../lib/gcc/arm-atollic-eabi/6.3.1/../../../../arm-atollic-eabi/lib/armv7e-m/fpu/libc.a(lib_a-svfprintf.o)
memcpy                                            /opt/Atollic_TrueSTUDIO_for_STM32_x86_64_9.3.0/ARMTools/bin/../lib/gcc/arm-atollic-eabi/6.3.1/../../../../arm-atollic-eabi/lib/armv7e-m/fpu/libc.a(lib_a-memcpy-stub.o)
                                                  /opt/Atollic_TrueSTUDIO_for_STM32_x86_64_9.3.0/ARMTools/bin/../lib/gcc/arm-atollic-eabi/6.3.1/../../../../arm-atollic-eabi/lib/armv7e-m/fpu/libc.a(lib_a-svfiprintf.o)
                                                  /opt/Atollic_TrueSTUDIO_for_STM32_x86_64_9.3.0/ARMTools/bin/../lib/gcc/arm-atollic-eabi/6.3.1/../../../../arm-atollic-eabi/lib/armv7e-m/fpu/libc.a(lib_a-mprec.o)
                                                  /opt/Atollic_TrueSTUDIO_for_STM32_x86_64_9.3.0/ARMTools/bin/../lib/gcc/arm-atollic-eabi/6.3.1/../../../../arm-atollic-eabi/lib/armv7e-m/fpu/libc.a(lib_a-dtoa.o)
                                                  Middlewares/Third_Party/FreeRTOS/Source/stream_buffer.o
                                                  Middlewares/Third_Party/FreeRTOS/Source/queue.o
                                                  Middlewares/Third_Party/FreeRTOS/Source/CMSIS_RTOS_V2/cmsis_os2.o
memmove                                           /opt/Atollic_TrueSTUDIO_for_STM32_x86_64_9.3.0/ARMTools/bin/../lib/gcc/arm-atollic-eabi/6.3.1/../../../../arm-atollic-eabi/lib/armv7e-m/fpu/libc.a(lib_a-memmove.o)
                                                  /opt/Atollic_TrueSTUDIO_for_STM32_x86_64_9.3.0/ARMTools/bin/../lib/gcc/arm-atollic-eabi/6.3.1/../../../../arm-atollic-eabi/lib/armv7e-m/fpu/libc.a(lib_a-reallocr.o)
                                                  /opt/Atollic_TrueSTUDIO_for_STM32_x86_64_9.3.0/ARMTools/bin/../lib/gcc/arm-atollic-eabi/6.3.1/../../../../arm-atollic-eabi/lib/armv7e-m/fpu/libc.a(lib_a-svfiprintf.o)
memset                                            /opt/Atollic_TrueSTUDIO_for_STM32_x86_64_9.3.0/ARMTools/bin/../lib/gcc/arm-atollic-eabi/6.3.1/../../../../arm-atollic-eabi/lib/armv7e-m/fpu/libc.a(lib_a-memset.o)
                                                  /opt/Atollic_TrueSTUDIO_for_STM32_x86_64_9.3.0/ARMTools/bin/../lib/gcc/arm-atollic-eabi/6.3.1/../../../../arm-atollic-eabi/lib/armv7e-m/fpu/libc.a(lib_a-callocr.o)
                                                  Middlewares/Third_Party/FreeRTOS/Source/tasks.o
                                                  Middlewares/Third_Party/FreeRTOS/Source/stream_buffer.o
                                                  Core/src/tim.o
                                                  Core/src/main.o
msw                                               Source/hub.o
osDelay                                           Middlewares/Third_Party/FreeRTOS/Source/CMSIS_RTOS_V2/cmsis_os2.o
                                                  Core/src/freertos.o
osDelayUntil                                      Middlewares/Third_Party/FreeRTOS/Source/CMSIS_RTOS_V2/cmsis_os2.o
osEventFlagsClear                                 Middlewares/Third_Party/FreeRTOS/Source/CMSIS_RTOS_V2/cmsis_os2.o
osEventFlagsDelete                                Middlewares/Third_Party/FreeRTOS/Source/CMSIS_RTOS_V2/cmsis_os2.o
osEventFlagsGet                                   Middlewares/Third_Party/FreeRTOS/Source/CMSIS_RTOS_V2/cmsis_os2.o
osEventFlagsNew                                   Middlewares/Third_Party/FreeRTOS/Source/CMSIS_RTOS_V2/cmsis_os2.o
osEventFlagsSet                                   Middlewares/Third_Party/FreeRTOS/Source/CMSIS_RTOS_V2/cmsis_os2.o
osEventFlagsWait                                  Middlewares/Third_Party/FreeRTOS/Source/CMSIS_RTOS_V2/cmsis_os2.o
osKernelGetInfo                                   Middlewares/Third_Party/FreeRTOS/Source/CMSIS_RTOS_V2/cmsis_os2.o
osKernelGetState                                  Middlewares/Third_Party/FreeRTOS/Source/CMSIS_RTOS_V2/cmsis_os2.o
osKernelGetSysTimerCount                          Middlewares/Third_Party/FreeRTOS/Source/CMSIS_RTOS_V2/cmsis_os2.o
osKernelGetSysTimerFreq                           Middlewares/Third_Party/FreeRTOS/Source/CMSIS_RTOS_V2/cmsis_os2.o
osKernelGetTickCount                              Middlewares/Third_Party/FreeRTOS/Source/CMSIS_RTOS_V2/cmsis_os2.o
osKernelGetTickFreq                               Middlewares/Third_Party/FreeRTOS/Source/CMSIS_RTOS_V2/cmsis_os2.o
osKernelInitialize                                Middlewares/Third_Party/FreeRTOS/Source/CMSIS_RTOS_V2/cmsis_os2.o
                                                  Core/src/main.o
osKernelLock                                      Middlewares/Third_Party/FreeRTOS/Source/CMSIS_RTOS_V2/cmsis_os2.o
osKernelRestoreLock                               Middlewares/Third_Party/FreeRTOS/Source/CMSIS_RTOS_V2/cmsis_os2.o
osKernelStart                                     Middlewares/Third_Party/FreeRTOS/Source/CMSIS_RTOS_V2/cmsis_os2.o
                                                  Core/src/main.o
osKernelUnlock                                    Middlewares/Third_Party/FreeRTOS/Source/CMSIS_RTOS_V2/cmsis_os2.o
osMessageQueueDelete                              Middlewares/Third_Party/FreeRTOS/Source/CMSIS_RTOS_V2/cmsis_os2.o
osMessageQueueGet                                 Middlewares/Third_Party/FreeRTOS/Source/CMSIS_RTOS_V2/cmsis_os2.o
osMessageQueueGetCapacity                         Middlewares/Third_Party/FreeRTOS/Source/CMSIS_RTOS_V2/cmsis_os2.o
osMessageQueueGetCount                            Middlewares/Third_Party/FreeRTOS/Source/CMSIS_RTOS_V2/cmsis_os2.o
osMessageQueueGetMsgSize                          Middlewares/Third_Party/FreeRTOS/Source/CMSIS_RTOS_V2/cmsis_os2.o
osMessageQueueGetSpace                            Middlewares/Third_Party/FreeRTOS/Source/CMSIS_RTOS_V2/cmsis_os2.o
osMessageQueueNew                                 Middlewares/Third_Party/FreeRTOS/Source/CMSIS_RTOS_V2/cmsis_os2.o
osMessageQueuePut                                 Middlewares/Third_Party/FreeRTOS/Source/CMSIS_RTOS_V2/cmsis_os2.o
osMessageQueueReset                               Middlewares/Third_Party/FreeRTOS/Source/CMSIS_RTOS_V2/cmsis_os2.o
osMutexAcquire                                    Middlewares/Third_Party/FreeRTOS/Source/CMSIS_RTOS_V2/cmsis_os2.o
osMutexDelete                                     Middlewares/Third_Party/FreeRTOS/Source/CMSIS_RTOS_V2/cmsis_os2.o
osMutexGetOwner                                   Middlewares/Third_Party/FreeRTOS/Source/CMSIS_RTOS_V2/cmsis_os2.o
osMutexNew                                        Middlewares/Third_Party/FreeRTOS/Source/CMSIS_RTOS_V2/cmsis_os2.o
osMutexRelease                                    Middlewares/Third_Party/FreeRTOS/Source/CMSIS_RTOS_V2/cmsis_os2.o
osSemaphoreAcquire                                Middlewares/Third_Party/FreeRTOS/Source/CMSIS_RTOS_V2/cmsis_os2.o
osSemaphoreDelete                                 Middlewares/Third_Party/FreeRTOS/Source/CMSIS_RTOS_V2/cmsis_os2.o
osSemaphoreGetCount                               Middlewares/Third_Party/FreeRTOS/Source/CMSIS_RTOS_V2/cmsis_os2.o
osSemaphoreNew                                    Middlewares/Third_Party/FreeRTOS/Source/CMSIS_RTOS_V2/cmsis_os2.o
osSemaphoreRelease                                Middlewares/Third_Party/FreeRTOS/Source/CMSIS_RTOS_V2/cmsis_os2.o
osThreadEnumerate                                 Middlewares/Third_Party/FreeRTOS/Source/CMSIS_RTOS_V2/cmsis_os2.o
osThreadExit                                      Middlewares/Third_Party/FreeRTOS/Source/CMSIS_RTOS_V2/cmsis_os2.o
osThreadFlagsClear                                Middlewares/Third_Party/FreeRTOS/Source/CMSIS_RTOS_V2/cmsis_os2.o
osThreadFlagsGet                                  Middlewares/Third_Party/FreeRTOS/Source/CMSIS_RTOS_V2/cmsis_os2.o
osThreadFlagsSet                                  Middlewares/Third_Party/FreeRTOS/Source/CMSIS_RTOS_V2/cmsis_os2.o
osThreadFlagsWait                                 Middlewares/Third_Party/FreeRTOS/Source/CMSIS_RTOS_V2/cmsis_os2.o
osThreadGetCount                                  Middlewares/Third_Party/FreeRTOS/Source/CMSIS_RTOS_V2/cmsis_os2.o
osThreadGetId                                     Middlewares/Third_Party/FreeRTOS/Source/CMSIS_RTOS_V2/cmsis_os2.o
osThreadGetName                                   Middlewares/Third_Party/FreeRTOS/Source/CMSIS_RTOS_V2/cmsis_os2.o
osThreadGetPriority                               Middlewares/Third_Party/FreeRTOS/Source/CMSIS_RTOS_V2/cmsis_os2.o
osThreadGetStackSize                              Middlewares/Third_Party/FreeRTOS/Source/CMSIS_RTOS_V2/cmsis_os2.o
osThreadGetStackSpace                             Middlewares/Third_Party/FreeRTOS/Source/CMSIS_RTOS_V2/cmsis_os2.o
osThreadGetState                                  Middlewares/Third_Party/FreeRTOS/Source/CMSIS_RTOS_V2/cmsis_os2.o
osThreadNew                                       Middlewares/Third_Party/FreeRTOS/Source/CMSIS_RTOS_V2/cmsis_os2.o
                                                  Core/src/freertos.o
osThreadResume                                    Middlewares/Third_Party/FreeRTOS/Source/CMSIS_RTOS_V2/cmsis_os2.o
osThreadSetPriority                               Middlewares/Third_Party/FreeRTOS/Source/CMSIS_RTOS_V2/cmsis_os2.o
osThreadSuspend                                   Middlewares/Third_Party/FreeRTOS/Source/CMSIS_RTOS_V2/cmsis_os2.o
osThreadTerminate                                 Middlewares/Third_Party/FreeRTOS/Source/CMSIS_RTOS_V2/cmsis_os2.o
osThreadYield                                     Middlewares/Third_Party/FreeRTOS/Source/CMSIS_RTOS_V2/cmsis_os2.o
                                                  Source/Tasks/communication.o
                                                  Source/Tasks/analog.o
osTimerDelete                                     Middlewares/Third_Party/FreeRTOS/Source/CMSIS_RTOS_V2/cmsis_os2.o
osTimerGetName                                    Middlewares/Third_Party/FreeRTOS/Source/CMSIS_RTOS_V2/cmsis_os2.o
osTimerIsRunning                                  Middlewares/Third_Party/FreeRTOS/Source/CMSIS_RTOS_V2/cmsis_os2.o
osTimerNew                                        Middlewares/Third_Party/FreeRTOS/Source/CMSIS_RTOS_V2/cmsis_os2.o
                                                  Core/src/freertos.o
osTimerStart                                      Middlewares/Third_Party/FreeRTOS/Source/CMSIS_RTOS_V2/cmsis_os2.o
                                                  Source/Tasks/communication.o
                                                  Core/src/freertos.o
osTimerStop                                       Middlewares/Third_Party/FreeRTOS/Source/CMSIS_RTOS_V2/cmsis_os2.o
                                                  Source/Timers/envelope.o
                                                  Source/Tasks/communication.o
pFlash                                            Drivers/STM32F4xx_HAL_Driver/Src/stm32f4xx_hal_flash.o
                                                  Drivers/STM32F4xx_HAL_Driver/Src/stm32f4xx_hal_flash_ex.o
packet                                            Source/Tasks/communication.o
packetReceive                                     USB_DEVICE/App/usbd_cdc_if.o
packetReset                                       Source/Tasks/communication.o
                                                  Source/Timers/envelope.o
pcQueueGetName                                    Middlewares/Third_Party/FreeRTOS/Source/queue.o
pcTaskGetName                                     Middlewares/Third_Party/FreeRTOS/Source/tasks.o
                                                  Middlewares/Third_Party/FreeRTOS/Source/CMSIS_RTOS_V2/cmsis_os2.o
pcTimerGetName                                    Middlewares/Third_Party/FreeRTOS/Source/timers.o
                                                  Middlewares/Third_Party/FreeRTOS/Source/CMSIS_RTOS_V2/cmsis_os2.o
pvPortMalloc                                      Middlewares/Third_Party/FreeRTOS/Source/portable/MemMang/heap_4.o
                                                  Middlewares/Third_Party/FreeRTOS/Source/timers.o
                                                  Middlewares/Third_Party/FreeRTOS/Source/tasks.o
                                                  Middlewares/Third_Party/FreeRTOS/Source/stream_buffer.o
                                                  Middlewares/Third_Party/FreeRTOS/Source/queue.o
                                                  Middlewares/Third_Party/FreeRTOS/Source/event_groups.o
                                                  Middlewares/Third_Party/FreeRTOS/Source/CMSIS_RTOS_V2/cmsis_os2.o
pvTaskIncrementMutexHeldCount                     Middlewares/Third_Party/FreeRTOS/Source/tasks.o
                                                  Middlewares/Third_Party/FreeRTOS/Source/queue.o
pvTimerGetTimerID                                 Middlewares/Third_Party/FreeRTOS/Source/timers.o
                                                  Middlewares/Third_Party/FreeRTOS/Source/CMSIS_RTOS_V2/cmsis_os2.o
pxCurrentTCB                                      Middlewares/Third_Party/FreeRTOS/Source/tasks.o
                                                  Middlewares/Third_Party/FreeRTOS/Source/portable/GCC/ARM_CM4F/port.o
pxPortInitialiseStack                             Middlewares/Third_Party/FreeRTOS/Source/portable/GCC/ARM_CM4F/port.o
                                                  Middlewares/Third_Party/FreeRTOS/Source/tasks.o
setlocale                                         /opt/Atollic_TrueSTUDIO_for_STM32_x86_64_9.3.0/ARMTools/bin/../lib/gcc/arm-atollic-eabi/6.3.1/../../../../arm-atollic-eabi/lib/armv7e-m/fpu/libc.a(lib_a-locale.o)
sprintf                                           /opt/Atollic_TrueSTUDIO_for_STM32_x86_64_9.3.0/ARMTools/bin/../lib/gcc/arm-atollic-eabi/6.3.1/../../../../arm-atollic-eabi/lib/armv7e-m/fpu/libc.a(lib_a-sprintf.o)
                                                  Middlewares/Third_Party/FreeRTOS/Source/tasks.o
sqrt                                              /opt/Atollic_TrueSTUDIO_for_STM32_x86_64_9.3.0/ARMTools/bin/../lib/gcc/arm-atollic-eabi/6.3.1/../../../../arm-atollic-eabi/lib/armv7e-m/fpu/libm.a(lib_a-w_sqrt.o)
                                                  Source/stepper.o
status                                            Core/src/main.o
                                                  Source/stepper.o
                                                  Source/hx711.o
                                                  Source/hub.o
                                                  Source/Timers/heartbeat.o
                                                  Source/Tasks/communication.o
                                                  Source/Tasks/analog.o
stepper                                           Source/stepper.o
stepperAbs                                        Source/stepper.o
stepperDelay                                      Source/stepper.o
stepperHome                                       Source/stepper.o
stepperRel                                        Source/stepper.o
                                                  Core/src/freertos.o
stp                                               Core/src/main.o
strcmp                                            /opt/Atollic_TrueSTUDIO_for_STM32_x86_64_9.3.0/ARMTools/bin/../lib/gcc/arm-atollic-eabi/6.3.1/../../../../arm-atollic-eabi/lib/armv7e-m/fpu/libc.a(lib_a-strcmp.o)
                                                  /opt/Atollic_TrueSTUDIO_for_STM32_x86_64_9.3.0/ARMTools/bin/../lib/gcc/arm-atollic-eabi/6.3.1/../../../../arm-atollic-eabi/lib/armv7e-m/fpu/libc.a(lib_a-locale.o)
strcpy                                            /opt/Atollic_TrueSTUDIO_for_STM32_x86_64_9.3.0/ARMTools/bin/../lib/gcc/arm-atollic-eabi/6.3.1/../../../../arm-atollic-eabi/lib/armv7e-m/fpu/libc.a(lib_a-strcpy.o)
                                                  Middlewares/Third_Party/FreeRTOS/Source/tasks.o
strlen                                            /opt/Atollic_TrueSTUDIO_for_STM32_x86_64_9.3.0/ARMTools/bin/../lib/gcc/arm-atollic-eabi/6.3.1/../../../../arm-atollic-eabi/lib/armv7e-m/fpu/libc.a(lib_a-strlen.o)
                                                  /opt/Atollic_TrueSTUDIO_for_STM32_x86_64_9.3.0/ARMTools/bin/../lib/gcc/arm-atollic-eabi/6.3.1/../../../../arm-atollic-eabi/lib/armv7e-m/fpu/libc.a(lib_a-svfiprintf.o)
                                                  /opt/Atollic_TrueSTUDIO_for_STM32_x86_64_9.3.0/ARMTools/bin/../lib/gcc/arm-atollic-eabi/6.3.1/../../../../arm-atollic-eabi/lib/armv7e-m/fpu/libc.a(lib_a-svfprintf.o)
                                                  Middlewares/Third_Party/FreeRTOS/Source/tasks.o
ucQueueGetQueueType                               Middlewares/Third_Party/FreeRTOS/Source/queue.o
ucStreamBufferGetStreamBufferType                 Middlewares/Third_Party/FreeRTOS/Source/stream_buffer.o
ulTaskNotifyTake                                  Middlewares/Third_Party/FreeRTOS/Source/tasks.o
uwTick                                            Drivers/STM32F4xx_HAL_Driver/Src/stm32f4xx_hal.o
uwTickFreq                                        Drivers/STM32F4xx_HAL_Driver/Src/stm32f4xx_hal.o
uwTickPrio                                        Drivers/STM32F4xx_HAL_Driver/Src/stm32f4xx_hal.o
                                                  Drivers/STM32F4xx_HAL_Driver/Src/stm32f4xx_hal_rcc_ex.o
                                                  Drivers/STM32F4xx_HAL_Driver/Src/stm32f4xx_hal_rcc.o
uxEventGroupGetNumber                             Middlewares/Third_Party/FreeRTOS/Source/event_groups.o
uxListRemove                                      Middlewares/Third_Party/FreeRTOS/Source/list.o
                                                  Middlewares/Third_Party/FreeRTOS/Source/timers.o
                                                  Middlewares/Third_Party/FreeRTOS/Source/tasks.o
uxQueueGetQueueNumber                             Middlewares/Third_Party/FreeRTOS/Source/queue.o
uxQueueMessagesWaiting                            Middlewares/Third_Party/FreeRTOS/Source/queue.o
                                                  Middlewares/Third_Party/FreeRTOS/Source/CMSIS_RTOS_V2/cmsis_os2.o
uxQueueMessagesWaitingFromISR                     Middlewares/Third_Party/FreeRTOS/Source/queue.o
                                                  Middlewares/Third_Party/FreeRTOS/Source/CMSIS_RTOS_V2/cmsis_os2.o
uxQueueSpacesAvailable                            Middlewares/Third_Party/FreeRTOS/Source/queue.o
                                                  Middlewares/Third_Party/FreeRTOS/Source/CMSIS_RTOS_V2/cmsis_os2.o
uxStreamBufferGetStreamBufferNumber               Middlewares/Third_Party/FreeRTOS/Source/stream_buffer.o
uxTaskGetNumberOfTasks                            Middlewares/Third_Party/FreeRTOS/Source/tasks.o
                                                  Middlewares/Third_Party/FreeRTOS/Source/CMSIS_RTOS_V2/cmsis_os2.o
uxTaskGetStackHighWaterMark                       Middlewares/Third_Party/FreeRTOS/Source/tasks.o
                                                  Middlewares/Third_Party/FreeRTOS/Source/CMSIS_RTOS_V2/cmsis_os2.o
uxTaskGetSystemState                              Middlewares/Third_Party/FreeRTOS/Source/tasks.o
                                                  Middlewares/Third_Party/FreeRTOS/Source/CMSIS_RTOS_V2/cmsis_os2.o
uxTaskGetTaskNumber                               Middlewares/Third_Party/FreeRTOS/Source/tasks.o
uxTaskPriorityGet                                 Middlewares/Third_Party/FreeRTOS/Source/tasks.o
                                                  Middlewares/Third_Party/FreeRTOS/Source/CMSIS_RTOS_V2/cmsis_os2.o
uxTaskPriorityGetFromISR                          Middlewares/Third_Party/FreeRTOS/Source/tasks.o
uxTaskResetEventItemValue                         Middlewares/Third_Party/FreeRTOS/Source/tasks.o
                                                  Middlewares/Third_Party/FreeRTOS/Source/event_groups.o
uxTimerGetTimerNumber                             Middlewares/Third_Party/FreeRTOS/Source/timers.o
vApplicationGetIdleTaskMemory                     Middlewares/Third_Party/FreeRTOS/Source/CMSIS_RTOS_V2/cmsis_os2.o
                                                  Middlewares/Third_Party/FreeRTOS/Source/tasks.o
vApplicationGetTimerTaskMemory                    Middlewares/Third_Party/FreeRTOS/Source/CMSIS_RTOS_V2/cmsis_os2.o
                                                  Middlewares/Third_Party/FreeRTOS/Source/timers.o
vApplicationStackOverflowHook                     Core/src/freertos.o
                                                  Middlewares/Third_Party/FreeRTOS/Source/tasks.o
vEventGroupClearBitsCallback                      Middlewares/Third_Party/FreeRTOS/Source/event_groups.o
vEventGroupDelete                                 Middlewares/Third_Party/FreeRTOS/Source/event_groups.o
                                                  Middlewares/Third_Party/FreeRTOS/Source/CMSIS_RTOS_V2/cmsis_os2.o
vEventGroupSetBitsCallback                        Middlewares/Third_Party/FreeRTOS/Source/event_groups.o
vEventGroupSetNumber                              Middlewares/Third_Party/FreeRTOS/Source/event_groups.o
vListInitialise                                   Middlewares/Third_Party/FreeRTOS/Source/list.o
                                                  Middlewares/Third_Party/FreeRTOS/Source/timers.o
                                                  Middlewares/Third_Party/FreeRTOS/Source/tasks.o
                                                  Middlewares/Third_Party/FreeRTOS/Source/queue.o
                                                  Middlewares/Third_Party/FreeRTOS/Source/event_groups.o
vListInitialiseItem                               Middlewares/Third_Party/FreeRTOS/Source/list.o
                                                  Middlewares/Third_Party/FreeRTOS/Source/timers.o
                                                  Middlewares/Third_Party/FreeRTOS/Source/tasks.o
vListInsert                                       Middlewares/Third_Party/FreeRTOS/Source/list.o
                                                  Middlewares/Third_Party/FreeRTOS/Source/timers.o
                                                  Middlewares/Third_Party/FreeRTOS/Source/tasks.o
vListInsertEnd                                    Middlewares/Third_Party/FreeRTOS/Source/list.o
                                                  Middlewares/Third_Party/FreeRTOS/Source/tasks.o
vPortEndScheduler                                 Middlewares/Third_Party/FreeRTOS/Source/portable/GCC/ARM_CM4F/port.o
                                                  Middlewares/Third_Party/FreeRTOS/Source/tasks.o
vPortEnterCritical                                Middlewares/Third_Party/FreeRTOS/Source/portable/GCC/ARM_CM4F/port.o
                                                  Middlewares/Third_Party/FreeRTOS/Source/timers.o
                                                  Middlewares/Third_Party/FreeRTOS/Source/tasks.o
                                                  Middlewares/Third_Party/FreeRTOS/Source/stream_buffer.o
                                                  Middlewares/Third_Party/FreeRTOS/Source/queue.o
                                                  Middlewares/Third_Party/FreeRTOS/Source/event_groups.o
vPortExitCritical                                 Middlewares/Third_Party/FreeRTOS/Source/portable/GCC/ARM_CM4F/port.o
                                                  Middlewares/Third_Party/FreeRTOS/Source/timers.o
                                                  Middlewares/Third_Party/FreeRTOS/Source/tasks.o
                                                  Middlewares/Third_Party/FreeRTOS/Source/stream_buffer.o
                                                  Middlewares/Third_Party/FreeRTOS/Source/queue.o
                                                  Middlewares/Third_Party/FreeRTOS/Source/event_groups.o
vPortFree                                         Middlewares/Third_Party/FreeRTOS/Source/portable/MemMang/heap_4.o
                                                  Middlewares/Third_Party/FreeRTOS/Source/timers.o
                                                  Middlewares/Third_Party/FreeRTOS/Source/tasks.o
                                                  Middlewares/Third_Party/FreeRTOS/Source/stream_buffer.o
                                                  Middlewares/Third_Party/FreeRTOS/Source/queue.o
                                                  Middlewares/Third_Party/FreeRTOS/Source/event_groups.o
                                                  Middlewares/Third_Party/FreeRTOS/Source/CMSIS_RTOS_V2/cmsis_os2.o
vPortInitialiseBlocks                             Middlewares/Third_Party/FreeRTOS/Source/portable/MemMang/heap_4.o
vPortSetupTimerInterrupt                          Middlewares/Third_Party/FreeRTOS/Source/portable/GCC/ARM_CM4F/port.o
vPortValidateInterruptPriority                    Middlewares/Third_Party/FreeRTOS/Source/portable/GCC/ARM_CM4F/port.o
                                                  Middlewares/Third_Party/FreeRTOS/Source/tasks.o
                                                  Middlewares/Third_Party/FreeRTOS/Source/queue.o
vQueueAddToRegistry                               Middlewares/Third_Party/FreeRTOS/Source/queue.o
                                                  Middlewares/Third_Party/FreeRTOS/Source/timers.o
                                                  Middlewares/Third_Party/FreeRTOS/Source/CMSIS_RTOS_V2/cmsis_os2.o
vQueueDelete                                      Middlewares/Third_Party/FreeRTOS/Source/queue.o
                                                  Middlewares/Third_Party/FreeRTOS/Source/CMSIS_RTOS_V2/cmsis_os2.o
vQueueSetQueueNumber                              Middlewares/Third_Party/FreeRTOS/Source/queue.o
vQueueUnregisterQueue                             Middlewares/Third_Party/FreeRTOS/Source/queue.o
                                                  Middlewares/Third_Party/FreeRTOS/Source/CMSIS_RTOS_V2/cmsis_os2.o
vQueueWaitForMessageRestricted                    Middlewares/Third_Party/FreeRTOS/Source/queue.o
                                                  Middlewares/Third_Party/FreeRTOS/Source/timers.o
vStreamBufferDelete                               Middlewares/Third_Party/FreeRTOS/Source/stream_buffer.o
vStreamBufferSetStreamBufferNumber                Middlewares/Third_Party/FreeRTOS/Source/stream_buffer.o
vTaskDelay                                        Middlewares/Third_Party/FreeRTOS/Source/tasks.o
                                                  Middlewares/Third_Party/FreeRTOS/Source/CMSIS_RTOS_V2/cmsis_os2.o
vTaskDelayUntil                                   Middlewares/Third_Party/FreeRTOS/Source/tasks.o
                                                  Middlewares/Third_Party/FreeRTOS/Source/CMSIS_RTOS_V2/cmsis_os2.o
vTaskDelete                                       Middlewares/Third_Party/FreeRTOS/Source/tasks.o
                                                  Middlewares/Third_Party/FreeRTOS/Source/CMSIS_RTOS_V2/cmsis_os2.o
vTaskEndScheduler                                 Middlewares/Third_Party/FreeRTOS/Source/tasks.o
vTaskGetInfo                                      Middlewares/Third_Party/FreeRTOS/Source/tasks.o
vTaskGetRunTimeStats                              Middlewares/Third_Party/FreeRTOS/Source/tasks.o
vTaskInternalSetTimeOutState                      Middlewares/Third_Party/FreeRTOS/Source/tasks.o
                                                  Middlewares/Third_Party/FreeRTOS/Source/queue.o
vTaskList                                         Middlewares/Third_Party/FreeRTOS/Source/tasks.o
vTaskMissedYield                                  Middlewares/Third_Party/FreeRTOS/Source/tasks.o
                                                  Middlewares/Third_Party/FreeRTOS/Source/queue.o
vTaskNotifyGiveFromISR                            Middlewares/Third_Party/FreeRTOS/Source/tasks.o
vTaskPlaceOnEventList                             Middlewares/Third_Party/FreeRTOS/Source/tasks.o
                                                  Middlewares/Third_Party/FreeRTOS/Source/queue.o
vTaskPlaceOnEventListRestricted                   Middlewares/Third_Party/FreeRTOS/Source/tasks.o
                                                  Middlewares/Third_Party/FreeRTOS/Source/queue.o
vTaskPlaceOnUnorderedEventList                    Middlewares/Third_Party/FreeRTOS/Source/tasks.o
                                                  Middlewares/Third_Party/FreeRTOS/Source/event_groups.o
vTaskPriorityDisinheritAfterTimeout               Middlewares/Third_Party/FreeRTOS/Source/tasks.o
                                                  Middlewares/Third_Party/FreeRTOS/Source/queue.o
vTaskPrioritySet                                  Middlewares/Third_Party/FreeRTOS/Source/tasks.o
                                                  Middlewares/Third_Party/FreeRTOS/Source/CMSIS_RTOS_V2/cmsis_os2.o
vTaskRemoveFromUnorderedEventList                 Middlewares/Third_Party/FreeRTOS/Source/tasks.o
                                                  Middlewares/Third_Party/FreeRTOS/Source/event_groups.o
vTaskResume                                       Middlewares/Third_Party/FreeRTOS/Source/tasks.o
                                                  Middlewares/Third_Party/FreeRTOS/Source/CMSIS_RTOS_V2/cmsis_os2.o
vTaskSetTaskNumber                                Middlewares/Third_Party/FreeRTOS/Source/tasks.o
vTaskSetTimeOutState                              Middlewares/Third_Party/FreeRTOS/Source/tasks.o
                                                  Middlewares/Third_Party/FreeRTOS/Source/stream_buffer.o
vTaskStartScheduler                               Middlewares/Third_Party/FreeRTOS/Source/tasks.o
                                                  Middlewares/Third_Party/FreeRTOS/Source/CMSIS_RTOS_V2/cmsis_os2.o
vTaskSuspend                                      Middlewares/Third_Party/FreeRTOS/Source/tasks.o
                                                  Middlewares/Third_Party/FreeRTOS/Source/CMSIS_RTOS_V2/cmsis_os2.o
vTaskSuspendAll                                   Middlewares/Third_Party/FreeRTOS/Source/tasks.o
                                                  Middlewares/Third_Party/FreeRTOS/Source/timers.o
                                                  Middlewares/Third_Party/FreeRTOS/Source/stream_buffer.o
                                                  Middlewares/Third_Party/FreeRTOS/Source/queue.o
                                                  Middlewares/Third_Party/FreeRTOS/Source/portable/MemMang/heap_4.o
                                                  Middlewares/Third_Party/FreeRTOS/Source/event_groups.o
                                                  Middlewares/Third_Party/FreeRTOS/Source/CMSIS_RTOS_V2/cmsis_os2.o
vTaskSwitchContext                                Middlewares/Third_Party/FreeRTOS/Source/tasks.o
                                                  Middlewares/Third_Party/FreeRTOS/Source/portable/GCC/ARM_CM4F/port.o
vTimerSetTimerID                                  Middlewares/Third_Party/FreeRTOS/Source/timers.o
vTimerSetTimerNumber                              Middlewares/Third_Party/FreeRTOS/Source/timers.o
xEventGroupClearBits                              Middlewares/Third_Party/FreeRTOS/Source/event_groups.o
                                                  Middlewares/Third_Party/FreeRTOS/Source/CMSIS_RTOS_V2/cmsis_os2.o
xEventGroupClearBitsFromISR                       Middlewares/Third_Party/FreeRTOS/Source/event_groups.o
                                                  Middlewares/Third_Party/FreeRTOS/Source/CMSIS_RTOS_V2/cmsis_os2.o
xEventGroupCreate                                 Middlewares/Third_Party/FreeRTOS/Source/event_groups.o
                                                  Middlewares/Third_Party/FreeRTOS/Source/CMSIS_RTOS_V2/cmsis_os2.o
xEventGroupCreateStatic                           Middlewares/Third_Party/FreeRTOS/Source/event_groups.o
                                                  Middlewares/Third_Party/FreeRTOS/Source/CMSIS_RTOS_V2/cmsis_os2.o
xEventGroupGetBitsFromISR                         Middlewares/Third_Party/FreeRTOS/Source/event_groups.o
                                                  Middlewares/Third_Party/FreeRTOS/Source/CMSIS_RTOS_V2/cmsis_os2.o
xEventGroupSetBits                                Middlewares/Third_Party/FreeRTOS/Source/event_groups.o
                                                  Middlewares/Third_Party/FreeRTOS/Source/CMSIS_RTOS_V2/cmsis_os2.o
xEventGroupSetBitsFromISR                         Middlewares/Third_Party/FreeRTOS/Source/event_groups.o
                                                  Middlewares/Third_Party/FreeRTOS/Source/CMSIS_RTOS_V2/cmsis_os2.o
xEventGroupSync                                   Middlewares/Third_Party/FreeRTOS/Source/event_groups.o
xEventGroupWaitBits                               Middlewares/Third_Party/FreeRTOS/Source/event_groups.o
                                                  Middlewares/Third_Party/FreeRTOS/Source/CMSIS_RTOS_V2/cmsis_os2.o
xPortGetFreeHeapSize                              Middlewares/Third_Party/FreeRTOS/Source/portable/MemMang/heap_4.o
xPortGetMinimumEverFreeHeapSize                   Middlewares/Third_Party/FreeRTOS/Source/portable/MemMang/heap_4.o
xPortStartScheduler                               Middlewares/Third_Party/FreeRTOS/Source/portable/GCC/ARM_CM4F/port.o
                                                  Middlewares/Third_Party/FreeRTOS/Source/tasks.o
xQueueCreateCountingSemaphore                     Middlewares/Third_Party/FreeRTOS/Source/queue.o
                                                  Middlewares/Third_Party/FreeRTOS/Source/CMSIS_RTOS_V2/cmsis_os2.o
xQueueCreateCountingSemaphoreStatic               Middlewares/Third_Party/FreeRTOS/Source/queue.o
                                                  Middlewares/Third_Party/FreeRTOS/Source/CMSIS_RTOS_V2/cmsis_os2.o
xQueueCreateMutex                                 Middlewares/Third_Party/FreeRTOS/Source/queue.o
                                                  Middlewares/Third_Party/FreeRTOS/Source/CMSIS_RTOS_V2/cmsis_os2.o
xQueueCreateMutexStatic                           Middlewares/Third_Party/FreeRTOS/Source/queue.o
                                                  Middlewares/Third_Party/FreeRTOS/Source/CMSIS_RTOS_V2/cmsis_os2.o
xQueueGenericCreate                               Middlewares/Third_Party/FreeRTOS/Source/queue.o
                                                  Middlewares/Third_Party/FreeRTOS/Source/CMSIS_RTOS_V2/cmsis_os2.o
xQueueGenericCreateStatic                         Middlewares/Third_Party/FreeRTOS/Source/queue.o
                                                  Middlewares/Third_Party/FreeRTOS/Source/timers.o
                                                  Middlewares/Third_Party/FreeRTOS/Source/CMSIS_RTOS_V2/cmsis_os2.o
xQueueGenericReset                                Middlewares/Third_Party/FreeRTOS/Source/queue.o
                                                  Middlewares/Third_Party/FreeRTOS/Source/CMSIS_RTOS_V2/cmsis_os2.o
xQueueGenericSend                                 Middlewares/Third_Party/FreeRTOS/Source/queue.o
                                                  Middlewares/Third_Party/FreeRTOS/Source/timers.o
                                                  Middlewares/Third_Party/FreeRTOS/Source/CMSIS_RTOS_V2/cmsis_os2.o
xQueueGenericSendFromISR                          Middlewares/Third_Party/FreeRTOS/Source/queue.o
                                                  Middlewares/Third_Party/FreeRTOS/Source/timers.o
                                                  Middlewares/Third_Party/FreeRTOS/Source/CMSIS_RTOS_V2/cmsis_os2.o
xQueueGetMutexHolder                              Middlewares/Third_Party/FreeRTOS/Source/queue.o
                                                  Middlewares/Third_Party/FreeRTOS/Source/CMSIS_RTOS_V2/cmsis_os2.o
xQueueGetMutexHolderFromISR                       Middlewares/Third_Party/FreeRTOS/Source/queue.o
xQueueGiveFromISR                                 Middlewares/Third_Party/FreeRTOS/Source/queue.o
                                                  Middlewares/Third_Party/FreeRTOS/Source/CMSIS_RTOS_V2/cmsis_os2.o
xQueueGiveMutexRecursive                          Middlewares/Third_Party/FreeRTOS/Source/queue.o
                                                  Middlewares/Third_Party/FreeRTOS/Source/CMSIS_RTOS_V2/cmsis_os2.o
xQueueIsQueueEmptyFromISR                         Middlewares/Third_Party/FreeRTOS/Source/queue.o
xQueueIsQueueFullFromISR                          Middlewares/Third_Party/FreeRTOS/Source/queue.o
xQueuePeek                                        Middlewares/Third_Party/FreeRTOS/Source/queue.o
xQueuePeekFromISR                                 Middlewares/Third_Party/FreeRTOS/Source/queue.o
xQueueReceive                                     Middlewares/Third_Party/FreeRTOS/Source/queue.o
                                                  Middlewares/Third_Party/FreeRTOS/Source/timers.o
                                                  Middlewares/Third_Party/FreeRTOS/Source/CMSIS_RTOS_V2/cmsis_os2.o
xQueueReceiveFromISR                              Middlewares/Third_Party/FreeRTOS/Source/queue.o
                                                  Middlewares/Third_Party/FreeRTOS/Source/CMSIS_RTOS_V2/cmsis_os2.o
xQueueRegistry                                    Middlewares/Third_Party/FreeRTOS/Source/queue.o
xQueueSemaphoreTake                               Middlewares/Third_Party/FreeRTOS/Source/queue.o
                                                  Middlewares/Third_Party/FreeRTOS/Source/CMSIS_RTOS_V2/cmsis_os2.o
xQueueTakeMutexRecursive                          Middlewares/Third_Party/FreeRTOS/Source/queue.o
                                                  Middlewares/Third_Party/FreeRTOS/Source/CMSIS_RTOS_V2/cmsis_os2.o
xStreamBufferBytesAvailable                       Middlewares/Third_Party/FreeRTOS/Source/stream_buffer.o
xStreamBufferGenericCreate                        Middlewares/Third_Party/FreeRTOS/Source/stream_buffer.o
xStreamBufferGenericCreateStatic                  Middlewares/Third_Party/FreeRTOS/Source/stream_buffer.o
xStreamBufferIsEmpty                              Middlewares/Third_Party/FreeRTOS/Source/stream_buffer.o
xStreamBufferIsFull                               Middlewares/Third_Party/FreeRTOS/Source/stream_buffer.o
xStreamBufferReceive                              Middlewares/Third_Party/FreeRTOS/Source/stream_buffer.o
xStreamBufferReceiveCompletedFromISR              Middlewares/Third_Party/FreeRTOS/Source/stream_buffer.o
xStreamBufferReceiveFromISR                       Middlewares/Third_Party/FreeRTOS/Source/stream_buffer.o
xStreamBufferReset                                Middlewares/Third_Party/FreeRTOS/Source/stream_buffer.o
xStreamBufferSend                                 Middlewares/Third_Party/FreeRTOS/Source/stream_buffer.o
xStreamBufferSendCompletedFromISR                 Middlewares/Third_Party/FreeRTOS/Source/stream_buffer.o
xStreamBufferSendFromISR                          Middlewares/Third_Party/FreeRTOS/Source/stream_buffer.o
xStreamBufferSetTriggerLevel                      Middlewares/Third_Party/FreeRTOS/Source/stream_buffer.o
xStreamBufferSpacesAvailable                      Middlewares/Third_Party/FreeRTOS/Source/stream_buffer.o
xTaskCheckForTimeOut                              Middlewares/Third_Party/FreeRTOS/Source/tasks.o
                                                  Middlewares/Third_Party/FreeRTOS/Source/stream_buffer.o
                                                  Middlewares/Third_Party/FreeRTOS/Source/queue.o
xTaskCreate                                       Middlewares/Third_Party/FreeRTOS/Source/tasks.o
                                                  Middlewares/Third_Party/FreeRTOS/Source/CMSIS_RTOS_V2/cmsis_os2.o
xTaskCreateStatic                                 Middlewares/Third_Party/FreeRTOS/Source/tasks.o
                                                  Middlewares/Third_Party/FreeRTOS/Source/timers.o
                                                  Middlewares/Third_Party/FreeRTOS/Source/CMSIS_RTOS_V2/cmsis_os2.o
xTaskGenericNotify                                Middlewares/Third_Party/FreeRTOS/Source/tasks.o
                                                  Middlewares/Third_Party/FreeRTOS/Source/stream_buffer.o
                                                  Middlewares/Third_Party/FreeRTOS/Source/CMSIS_RTOS_V2/cmsis_os2.o
xTaskGenericNotifyFromISR                         Middlewares/Third_Party/FreeRTOS/Source/tasks.o
                                                  Middlewares/Third_Party/FreeRTOS/Source/stream_buffer.o
                                                  Middlewares/Third_Party/FreeRTOS/Source/CMSIS_RTOS_V2/cmsis_os2.o
xTaskGetCurrentTaskHandle                         Middlewares/Third_Party/FreeRTOS/Source/tasks.o
                                                  Middlewares/Third_Party/FreeRTOS/Source/stream_buffer.o
                                                  Middlewares/Third_Party/FreeRTOS/Source/queue.o
                                                  Middlewares/Third_Party/FreeRTOS/Source/CMSIS_RTOS_V2/cmsis_os2.o
xTaskGetSchedulerState                            Middlewares/Third_Party/FreeRTOS/Source/tasks.o
                                                  Middlewares/Third_Party/FreeRTOS/Source/timers.o
                                                  Middlewares/Third_Party/FreeRTOS/Source/queue.o
                                                  Middlewares/Third_Party/FreeRTOS/Source/event_groups.o
                                                  Middlewares/Third_Party/FreeRTOS/Source/CMSIS_RTOS_V2/cmsis_os2.o
xTaskGetTickCount                                 Middlewares/Third_Party/FreeRTOS/Source/tasks.o
                                                  Source/Tasks/communication.o
                                                  Middlewares/Third_Party/FreeRTOS/Source/timers.o
                                                  Middlewares/Third_Party/FreeRTOS/Source/CMSIS_RTOS_V2/cmsis_os2.o
xTaskGetTickCountFromISR                          Middlewares/Third_Party/FreeRTOS/Source/tasks.o
                                                  Middlewares/Third_Party/FreeRTOS/Source/CMSIS_RTOS_V2/cmsis_os2.o
xTaskIncrementTick                                Middlewares/Third_Party/FreeRTOS/Source/tasks.o
                                                  Middlewares/Third_Party/FreeRTOS/Source/portable/GCC/ARM_CM4F/port.o
xTaskNotifyStateClear                             Middlewares/Third_Party/FreeRTOS/Source/tasks.o
                                                  Middlewares/Third_Party/FreeRTOS/Source/stream_buffer.o
xTaskNotifyWait                                   Middlewares/Third_Party/FreeRTOS/Source/tasks.o
                                                  Middlewares/Third_Party/FreeRTOS/Source/stream_buffer.o
                                                  Middlewares/Third_Party/FreeRTOS/Source/CMSIS_RTOS_V2/cmsis_os2.o
xTaskPriorityDisinherit                           Middlewares/Third_Party/FreeRTOS/Source/tasks.o
                                                  Middlewares/Third_Party/FreeRTOS/Source/queue.o
xTaskPriorityInherit                              Middlewares/Third_Party/FreeRTOS/Source/tasks.o
                                                  Middlewares/Third_Party/FreeRTOS/Source/queue.o
xTaskRemoveFromEventList                          Middlewares/Third_Party/FreeRTOS/Source/tasks.o
                                                  Middlewares/Third_Party/FreeRTOS/Source/queue.o
xTaskResumeAll                                    Middlewares/Third_Party/FreeRTOS/Source/tasks.o
                                                  Middlewares/Third_Party/FreeRTOS/Source/timers.o
                                                  Middlewares/Third_Party/FreeRTOS/Source/stream_buffer.o
                                                  Middlewares/Third_Party/FreeRTOS/Source/queue.o
                                                  Middlewares/Third_Party/FreeRTOS/Source/portable/MemMang/heap_4.o
                                                  Middlewares/Third_Party/FreeRTOS/Source/event_groups.o
                                                  Middlewares/Third_Party/FreeRTOS/Source/CMSIS_RTOS_V2/cmsis_os2.o
xTaskResumeFromISR                                Middlewares/Third_Party/FreeRTOS/Source/tasks.o
xTimerCreate                                      Middlewares/Third_Party/FreeRTOS/Source/timers.o
                                                  Middlewares/Third_Party/FreeRTOS/Source/CMSIS_RTOS_V2/cmsis_os2.o
xTimerCreateStatic                                Middlewares/Third_Party/FreeRTOS/Source/timers.o
                                                  Middlewares/Third_Party/FreeRTOS/Source/CMSIS_RTOS_V2/cmsis_os2.o
xTimerCreateTimerTask                             Middlewares/Third_Party/FreeRTOS/Source/timers.o
                                                  Middlewares/Third_Party/FreeRTOS/Source/tasks.o
xTimerGenericCommand                              Middlewares/Third_Party/FreeRTOS/Source/timers.o
                                                  Middlewares/Third_Party/FreeRTOS/Source/CMSIS_RTOS_V2/cmsis_os2.o
xTimerGetExpiryTime                               Middlewares/Third_Party/FreeRTOS/Source/timers.o
xTimerGetPeriod                                   Middlewares/Third_Party/FreeRTOS/Source/timers.o
xTimerGetTimerDaemonTaskHandle                    Middlewares/Third_Party/FreeRTOS/Source/timers.o
xTimerIsTimerActive                               Middlewares/Third_Party/FreeRTOS/Source/timers.o
                                                  Middlewares/Third_Party/FreeRTOS/Source/CMSIS_RTOS_V2/cmsis_os2.o
xTimerPendFunctionCall                            Middlewares/Third_Party/FreeRTOS/Source/timers.o
xTimerPendFunctionCallFromISR                     Middlewares/Third_Party/FreeRTOS/Source/timers.o
                                                  Middlewares/Third_Party/FreeRTOS/Source/event_groups.o
